
main:     file format elf64-x86-64


Disassembly of section .init:

0000000000001a00 <.init>:
    1a00:	f3 0f 1e fa          	endbr64 
    1a04:	48 83 ec 08          	sub    $0x8,%rsp
    1a08:	48 8b 05 f1 73 00 00 	mov    0x73f1(%rip),%rax        # 0x8e00
    1a0f:	48 85 c0             	test   %rax,%rax
    1a12:	74 02                	je     0x1a16
    1a14:	ff d0                	call   *%rax
    1a16:	48 83 c4 08          	add    $0x8,%rsp
    1a1a:	c3                   	ret    

Disassembly of section .plt:

0000000000001a20 <.plt>:
    1a20:	ff 35 32 74 00 00    	push   0x7432(%rip)        # 0x8e58
    1a26:	f2 ff 25 33 74 00 00 	bnd jmp *0x7433(%rip)        # 0x8e60
    1a2d:	0f 1f 00             	nopl   (%rax)
    1a30:	f3 0f 1e fa          	endbr64 
    1a34:	68 00 00 00 00       	push   $0x0
    1a39:	f2 e9 e1 ff ff ff    	bnd jmp 0x1a20
    1a3f:	90                   	nop
    1a40:	f3 0f 1e fa          	endbr64 
    1a44:	68 01 00 00 00       	push   $0x1
    1a49:	f2 e9 d1 ff ff ff    	bnd jmp 0x1a20
    1a4f:	90                   	nop
    1a50:	f3 0f 1e fa          	endbr64 
    1a54:	68 02 00 00 00       	push   $0x2
    1a59:	f2 e9 c1 ff ff ff    	bnd jmp 0x1a20
    1a5f:	90                   	nop
    1a60:	f3 0f 1e fa          	endbr64 
    1a64:	68 03 00 00 00       	push   $0x3
    1a69:	f2 e9 b1 ff ff ff    	bnd jmp 0x1a20
    1a6f:	90                   	nop
    1a70:	f3 0f 1e fa          	endbr64 
    1a74:	68 04 00 00 00       	push   $0x4
    1a79:	f2 e9 a1 ff ff ff    	bnd jmp 0x1a20
    1a7f:	90                   	nop
    1a80:	f3 0f 1e fa          	endbr64 
    1a84:	68 05 00 00 00       	push   $0x5
    1a89:	f2 e9 91 ff ff ff    	bnd jmp 0x1a20
    1a8f:	90                   	nop
    1a90:	f3 0f 1e fa          	endbr64 
    1a94:	68 06 00 00 00       	push   $0x6
    1a99:	f2 e9 81 ff ff ff    	bnd jmp 0x1a20
    1a9f:	90                   	nop
    1aa0:	f3 0f 1e fa          	endbr64 
    1aa4:	68 07 00 00 00       	push   $0x7
    1aa9:	f2 e9 71 ff ff ff    	bnd jmp 0x1a20
    1aaf:	90                   	nop
    1ab0:	f3 0f 1e fa          	endbr64 
    1ab4:	68 08 00 00 00       	push   $0x8
    1ab9:	f2 e9 61 ff ff ff    	bnd jmp 0x1a20
    1abf:	90                   	nop
    1ac0:	f3 0f 1e fa          	endbr64 
    1ac4:	68 09 00 00 00       	push   $0x9
    1ac9:	f2 e9 51 ff ff ff    	bnd jmp 0x1a20
    1acf:	90                   	nop
    1ad0:	f3 0f 1e fa          	endbr64 
    1ad4:	68 0a 00 00 00       	push   $0xa
    1ad9:	f2 e9 41 ff ff ff    	bnd jmp 0x1a20
    1adf:	90                   	nop
    1ae0:	f3 0f 1e fa          	endbr64 
    1ae4:	68 0b 00 00 00       	push   $0xb
    1ae9:	f2 e9 31 ff ff ff    	bnd jmp 0x1a20
    1aef:	90                   	nop
    1af0:	f3 0f 1e fa          	endbr64 
    1af4:	68 0c 00 00 00       	push   $0xc
    1af9:	f2 e9 21 ff ff ff    	bnd jmp 0x1a20
    1aff:	90                   	nop
    1b00:	f3 0f 1e fa          	endbr64 
    1b04:	68 0d 00 00 00       	push   $0xd
    1b09:	f2 e9 11 ff ff ff    	bnd jmp 0x1a20
    1b0f:	90                   	nop
    1b10:	f3 0f 1e fa          	endbr64 
    1b14:	68 0e 00 00 00       	push   $0xe
    1b19:	f2 e9 01 ff ff ff    	bnd jmp 0x1a20
    1b1f:	90                   	nop
    1b20:	f3 0f 1e fa          	endbr64 
    1b24:	68 0f 00 00 00       	push   $0xf
    1b29:	f2 e9 f1 fe ff ff    	bnd jmp 0x1a20
    1b2f:	90                   	nop
    1b30:	f3 0f 1e fa          	endbr64 
    1b34:	68 10 00 00 00       	push   $0x10
    1b39:	f2 e9 e1 fe ff ff    	bnd jmp 0x1a20
    1b3f:	90                   	nop
    1b40:	f3 0f 1e fa          	endbr64 
    1b44:	68 11 00 00 00       	push   $0x11
    1b49:	f2 e9 d1 fe ff ff    	bnd jmp 0x1a20
    1b4f:	90                   	nop
    1b50:	f3 0f 1e fa          	endbr64 
    1b54:	68 12 00 00 00       	push   $0x12
    1b59:	f2 e9 c1 fe ff ff    	bnd jmp 0x1a20
    1b5f:	90                   	nop
    1b60:	f3 0f 1e fa          	endbr64 
    1b64:	68 13 00 00 00       	push   $0x13
    1b69:	f2 e9 b1 fe ff ff    	bnd jmp 0x1a20
    1b6f:	90                   	nop
    1b70:	f3 0f 1e fa          	endbr64 
    1b74:	68 14 00 00 00       	push   $0x14
    1b79:	f2 e9 a1 fe ff ff    	bnd jmp 0x1a20
    1b7f:	90                   	nop
    1b80:	f3 0f 1e fa          	endbr64 
    1b84:	68 15 00 00 00       	push   $0x15
    1b89:	f2 e9 91 fe ff ff    	bnd jmp 0x1a20
    1b8f:	90                   	nop
    1b90:	f3 0f 1e fa          	endbr64 
    1b94:	68 16 00 00 00       	push   $0x16
    1b99:	f2 e9 81 fe ff ff    	bnd jmp 0x1a20
    1b9f:	90                   	nop
    1ba0:	f3 0f 1e fa          	endbr64 
    1ba4:	68 17 00 00 00       	push   $0x17
    1ba9:	f2 e9 71 fe ff ff    	bnd jmp 0x1a20
    1baf:	90                   	nop
    1bb0:	f3 0f 1e fa          	endbr64 
    1bb4:	68 18 00 00 00       	push   $0x18
    1bb9:	f2 e9 61 fe ff ff    	bnd jmp 0x1a20
    1bbf:	90                   	nop
    1bc0:	f3 0f 1e fa          	endbr64 
    1bc4:	68 19 00 00 00       	push   $0x19
    1bc9:	f2 e9 51 fe ff ff    	bnd jmp 0x1a20
    1bcf:	90                   	nop
    1bd0:	f3 0f 1e fa          	endbr64 
    1bd4:	68 1a 00 00 00       	push   $0x1a
    1bd9:	f2 e9 41 fe ff ff    	bnd jmp 0x1a20
    1bdf:	90                   	nop
    1be0:	f3 0f 1e fa          	endbr64 
    1be4:	68 1b 00 00 00       	push   $0x1b
    1be9:	f2 e9 31 fe ff ff    	bnd jmp 0x1a20
    1bef:	90                   	nop
    1bf0:	f3 0f 1e fa          	endbr64 
    1bf4:	68 1c 00 00 00       	push   $0x1c
    1bf9:	f2 e9 21 fe ff ff    	bnd jmp 0x1a20
    1bff:	90                   	nop
    1c00:	f3 0f 1e fa          	endbr64 
    1c04:	68 1d 00 00 00       	push   $0x1d
    1c09:	f2 e9 11 fe ff ff    	bnd jmp 0x1a20
    1c0f:	90                   	nop
    1c10:	f3 0f 1e fa          	endbr64 
    1c14:	68 1e 00 00 00       	push   $0x1e
    1c19:	f2 e9 01 fe ff ff    	bnd jmp 0x1a20
    1c1f:	90                   	nop
    1c20:	f3 0f 1e fa          	endbr64 
    1c24:	68 1f 00 00 00       	push   $0x1f
    1c29:	f2 e9 f1 fd ff ff    	bnd jmp 0x1a20
    1c2f:	90                   	nop
    1c30:	f3 0f 1e fa          	endbr64 
    1c34:	68 20 00 00 00       	push   $0x20
    1c39:	f2 e9 e1 fd ff ff    	bnd jmp 0x1a20
    1c3f:	90                   	nop
    1c40:	f3 0f 1e fa          	endbr64 
    1c44:	68 21 00 00 00       	push   $0x21
    1c49:	f2 e9 d1 fd ff ff    	bnd jmp 0x1a20
    1c4f:	90                   	nop
    1c50:	f3 0f 1e fa          	endbr64 
    1c54:	68 22 00 00 00       	push   $0x22
    1c59:	f2 e9 c1 fd ff ff    	bnd jmp 0x1a20
    1c5f:	90                   	nop
    1c60:	f3 0f 1e fa          	endbr64 
    1c64:	68 23 00 00 00       	push   $0x23
    1c69:	f2 e9 b1 fd ff ff    	bnd jmp 0x1a20
    1c6f:	90                   	nop
    1c70:	f3 0f 1e fa          	endbr64 
    1c74:	68 24 00 00 00       	push   $0x24
    1c79:	f2 e9 a1 fd ff ff    	bnd jmp 0x1a20
    1c7f:	90                   	nop
    1c80:	f3 0f 1e fa          	endbr64 
    1c84:	68 25 00 00 00       	push   $0x25
    1c89:	f2 e9 91 fd ff ff    	bnd jmp 0x1a20
    1c8f:	90                   	nop
    1c90:	f3 0f 1e fa          	endbr64 
    1c94:	68 26 00 00 00       	push   $0x26
    1c99:	f2 e9 81 fd ff ff    	bnd jmp 0x1a20
    1c9f:	90                   	nop
    1ca0:	f3 0f 1e fa          	endbr64 
    1ca4:	68 27 00 00 00       	push   $0x27
    1ca9:	f2 e9 71 fd ff ff    	bnd jmp 0x1a20
    1caf:	90                   	nop
    1cb0:	f3 0f 1e fa          	endbr64 
    1cb4:	68 28 00 00 00       	push   $0x28
    1cb9:	f2 e9 61 fd ff ff    	bnd jmp 0x1a20
    1cbf:	90                   	nop
    1cc0:	f3 0f 1e fa          	endbr64 
    1cc4:	68 29 00 00 00       	push   $0x29
    1cc9:	f2 e9 51 fd ff ff    	bnd jmp 0x1a20
    1ccf:	90                   	nop
    1cd0:	f3 0f 1e fa          	endbr64 
    1cd4:	68 2a 00 00 00       	push   $0x2a
    1cd9:	f2 e9 41 fd ff ff    	bnd jmp 0x1a20
    1cdf:	90                   	nop
    1ce0:	f3 0f 1e fa          	endbr64 
    1ce4:	68 2b 00 00 00       	push   $0x2b
    1ce9:	f2 e9 31 fd ff ff    	bnd jmp 0x1a20
    1cef:	90                   	nop
    1cf0:	f3 0f 1e fa          	endbr64 
    1cf4:	68 2c 00 00 00       	push   $0x2c
    1cf9:	f2 e9 21 fd ff ff    	bnd jmp 0x1a20
    1cff:	90                   	nop
    1d00:	f3 0f 1e fa          	endbr64 
    1d04:	68 2d 00 00 00       	push   $0x2d
    1d09:	f2 e9 11 fd ff ff    	bnd jmp 0x1a20
    1d0f:	90                   	nop
    1d10:	f3 0f 1e fa          	endbr64 
    1d14:	68 2e 00 00 00       	push   $0x2e
    1d19:	f2 e9 01 fd ff ff    	bnd jmp 0x1a20
    1d1f:	90                   	nop
    1d20:	f3 0f 1e fa          	endbr64 
    1d24:	68 2f 00 00 00       	push   $0x2f
    1d29:	f2 e9 f1 fc ff ff    	bnd jmp 0x1a20
    1d2f:	90                   	nop
    1d30:	f3 0f 1e fa          	endbr64 
    1d34:	68 30 00 00 00       	push   $0x30
    1d39:	f2 e9 e1 fc ff ff    	bnd jmp 0x1a20
    1d3f:	90                   	nop
    1d40:	f3 0f 1e fa          	endbr64 
    1d44:	68 31 00 00 00       	push   $0x31
    1d49:	f2 e9 d1 fc ff ff    	bnd jmp 0x1a20
    1d4f:	90                   	nop
    1d50:	f3 0f 1e fa          	endbr64 
    1d54:	68 32 00 00 00       	push   $0x32
    1d59:	f2 e9 c1 fc ff ff    	bnd jmp 0x1a20
    1d5f:	90                   	nop
    1d60:	f3 0f 1e fa          	endbr64 
    1d64:	f2 ff 25 fd 70 00 00 	bnd jmp *0x70fd(%rip)        # 0x8e68
    1d6b:	0f 1f 04 00          	nopl   (%rax,%rax,1)
    1d6f:	90                   	nop
    1d70:	f3 0f 1e fa          	endbr64 
    1d74:	f2 ff 25 f5 70 00 00 	bnd jmp *0x70f5(%rip)        # 0x8e70
    1d7b:	0f 1f 04 00          	nopl   (%rax,%rax,1)
    1d7f:	90                   	nop
    1d80:	f3 0f 1e fa          	endbr64 
    1d84:	f2 ff 25 ed 70 00 00 	bnd jmp *0x70ed(%rip)        # 0x8e78
    1d8b:	0f 1f 04 00          	nopl   (%rax,%rax,1)
    1d8f:	90                   	nop
    1d90:	f3 0f 1e fa          	endbr64 
    1d94:	f2 ff 25 e5 70 00 00 	bnd jmp *0x70e5(%rip)        # 0x8e80
    1d9b:	0f 1f 04 00          	nopl   (%rax,%rax,1)
    1d9f:	90                   	nop
    1da0:	f3 0f 1e fa          	endbr64 
    1da4:	f2 ff 25 dd 70 00 00 	bnd jmp *0x70dd(%rip)        # 0x8e88
    1dab:	0f 1f 04 00          	nopl   (%rax,%rax,1)
    1daf:	90                   	nop
    1db0:	f3 0f 1e fa          	endbr64 
    1db4:	f2 ff 25 d5 70 00 00 	bnd jmp *0x70d5(%rip)        # 0x8e90
    1dbb:	0f 1f 04 00          	nopl   (%rax,%rax,1)
    1dbf:	90                   	nop
    1dc0:	f3 0f 1e fa          	endbr64 
    1dc4:	f2 ff 25 cd 70 00 00 	bnd jmp *0x70cd(%rip)        # 0x8e98
    1dcb:	0f 1f 04 00          	nopl   (%rax,%rax,1)
    1dcf:	90                   	nop
    1dd0:	f3 0f 1e fa          	endbr64 
    1dd4:	f2 ff 25 c5 70 00 00 	bnd jmp *0x70c5(%rip)        # 0x8ea0
    1ddb:	0f 1f 04 00          	nopl   (%rax,%rax,1)
    1ddf:	90                   	nop
    1de0:	f3 0f 1e fa          	endbr64 
    1de4:	f2 ff 25 bd 70 00 00 	bnd jmp *0x70bd(%rip)        # 0x8ea8
    1deb:	0f 1f 04 00          	nopl   (%rax,%rax,1)
    1def:	90                   	nop
    1df0:	f3 0f 1e fa          	endbr64 
    1df4:	f2 ff 25 b5 70 00 00 	bnd jmp *0x70b5(%rip)        # 0x8eb0
    1dfb:	0f 1f 04 00          	nopl   (%rax,%rax,1)
    1dff:	90                   	nop
    1e00:	f3 0f 1e fa          	endbr64 
    1e04:	f2 ff 25 ad 70 00 00 	bnd jmp *0x70ad(%rip)        # 0x8eb8
    1e0b:	0f 1f 04 00          	nopl   (%rax,%rax,1)
    1e0f:	90                   	nop
    1e10:	f3 0f 1e fa          	endbr64 
    1e14:	f2 ff 25 a5 70 00 00 	bnd jmp *0x70a5(%rip)        # 0x8ec0
    1e1b:	0f 1f 04 00          	nopl   (%rax,%rax,1)
    1e1f:	90                   	nop
    1e20:	f3 0f 1e fa          	endbr64 
    1e24:	f2 ff 25 9d 70 00 00 	bnd jmp *0x709d(%rip)        # 0x8ec8
    1e2b:	0f 1f 04 00          	nopl   (%rax,%rax,1)
    1e2f:	90                   	nop
    1e30:	f3 0f 1e fa          	endbr64 
    1e34:	f2 ff 25 95 70 00 00 	bnd jmp *0x7095(%rip)        # 0x8ed0
    1e3b:	0f 1f 04 00          	nopl   (%rax,%rax,1)
    1e3f:	90                   	nop
    1e40:	f3 0f 1e fa          	endbr64 
    1e44:	f2 ff 25 8d 70 00 00 	bnd jmp *0x708d(%rip)        # 0x8ed8
    1e4b:	0f 1f 04 00          	nopl   (%rax,%rax,1)
    1e4f:	90                   	nop
    1e50:	f3 0f 1e fa          	endbr64 
    1e54:	f2 ff 25 85 70 00 00 	bnd jmp *0x7085(%rip)        # 0x8ee0
    1e5b:	0f 1f 04 00          	nopl   (%rax,%rax,1)
    1e5f:	90                   	nop
    1e60:	f3 0f 1e fa          	endbr64 
    1e64:	f2 ff 25 7d 70 00 00 	bnd jmp *0x707d(%rip)        # 0x8ee8
    1e6b:	0f 1f 04 00          	nopl   (%rax,%rax,1)
    1e6f:	90                   	nop
    1e70:	f3 0f 1e fa          	endbr64 
    1e74:	f2 ff 25 75 70 00 00 	bnd jmp *0x7075(%rip)        # 0x8ef0
    1e7b:	0f 1f 04 00          	nopl   (%rax,%rax,1)
    1e7f:	90                   	nop
    1e80:	f3 0f 1e fa          	endbr64 
    1e84:	f2 ff 25 6d 70 00 00 	bnd jmp *0x706d(%rip)        # 0x8ef8
    1e8b:	0f 1f 04 00          	nopl   (%rax,%rax,1)
    1e8f:	90                   	nop
    1e90:	f3 0f 1e fa          	endbr64 
    1e94:	f2 ff 25 65 70 00 00 	bnd jmp *0x7065(%rip)        # 0x8f00
    1e9b:	0f 1f 04 00          	nopl   (%rax,%rax,1)
    1e9f:	90                   	nop
    1ea0:	f3 0f 1e fa          	endbr64 
    1ea4:	f2 ff 25 5d 70 00 00 	bnd jmp *0x705d(%rip)        # 0x8f08
    1eab:	0f 1f 04 00          	nopl   (%rax,%rax,1)
    1eaf:	90                   	nop
    1eb0:	f3 0f 1e fa          	endbr64 
    1eb4:	f2 ff 25 55 70 00 00 	bnd jmp *0x7055(%rip)        # 0x8f10
    1ebb:	0f 1f 04 00          	nopl   (%rax,%rax,1)
    1ebf:	90                   	nop
    1ec0:	f3 0f 1e fa          	endbr64 
    1ec4:	f2 ff 25 4d 70 00 00 	bnd jmp *0x704d(%rip)        # 0x8f18
    1ecb:	0f 1f 04 00          	nopl   (%rax,%rax,1)
    1ecf:	90                   	nop
    1ed0:	f3 0f 1e fa          	endbr64 
    1ed4:	f2 ff 25 45 70 00 00 	bnd jmp *0x7045(%rip)        # 0x8f20
    1edb:	0f 1f 04 00          	nopl   (%rax,%rax,1)
    1edf:	90                   	nop
    1ee0:	f3 0f 1e fa          	endbr64 
    1ee4:	f2 ff 25 3d 70 00 00 	bnd jmp *0x703d(%rip)        # 0x8f28
    1eeb:	0f 1f 04 00          	nopl   (%rax,%rax,1)
    1eef:	90                   	nop
    1ef0:	f3 0f 1e fa          	endbr64 
    1ef4:	f2 ff 25 35 70 00 00 	bnd jmp *0x7035(%rip)        # 0x8f30
    1efb:	0f 1f 04 00          	nopl   (%rax,%rax,1)
    1eff:	90                   	nop
    1f00:	f3 0f 1e fa          	endbr64 
    1f04:	f2 ff 25 2d 70 00 00 	bnd jmp *0x702d(%rip)        # 0x8f38
    1f0b:	0f 1f 04 00          	nopl   (%rax,%rax,1)
    1f0f:	90                   	nop
    1f10:	f3 0f 1e fa          	endbr64 
    1f14:	f2 ff 25 25 70 00 00 	bnd jmp *0x7025(%rip)        # 0x8f40
    1f1b:	0f 1f 04 00          	nopl   (%rax,%rax,1)
    1f1f:	90                   	nop
    1f20:	f3 0f 1e fa          	endbr64 
    1f24:	f2 ff 25 1d 70 00 00 	bnd jmp *0x701d(%rip)        # 0x8f48
    1f2b:	0f 1f 04 00          	nopl   (%rax,%rax,1)
    1f2f:	90                   	nop
    1f30:	f3 0f 1e fa          	endbr64 
    1f34:	f2 ff 25 15 70 00 00 	bnd jmp *0x7015(%rip)        # 0x8f50
    1f3b:	0f 1f 04 00          	nopl   (%rax,%rax,1)
    1f3f:	90                   	nop
    1f40:	f3 0f 1e fa          	endbr64 
    1f44:	f2 ff 25 0d 70 00 00 	bnd jmp *0x700d(%rip)        # 0x8f58
    1f4b:	0f 1f 04 00          	nopl   (%rax,%rax,1)
    1f4f:	90                   	nop
    1f50:	f3 0f 1e fa          	endbr64 
    1f54:	f2 ff 25 05 70 00 00 	bnd jmp *0x7005(%rip)        # 0x8f60
    1f5b:	0f 1f 04 00          	nopl   (%rax,%rax,1)
    1f5f:	90                   	nop
    1f60:	f3 0f 1e fa          	endbr64 
    1f64:	f2 ff 25 fd 6f 00 00 	bnd jmp *0x6ffd(%rip)        # 0x8f68
    1f6b:	0f 1f 04 00          	nopl   (%rax,%rax,1)
    1f6f:	90                   	nop
    1f70:	f3 0f 1e fa          	endbr64 
    1f74:	f2 ff 25 f5 6f 00 00 	bnd jmp *0x6ff5(%rip)        # 0x8f70
    1f7b:	0f 1f 04 00          	nopl   (%rax,%rax,1)
    1f7f:	90                   	nop
    1f80:	f3 0f 1e fa          	endbr64 
    1f84:	f2 ff 25 ed 6f 00 00 	bnd jmp *0x6fed(%rip)        # 0x8f78
    1f8b:	0f 1f 04 00          	nopl   (%rax,%rax,1)
    1f8f:	90                   	nop
    1f90:	f3 0f 1e fa          	endbr64 
    1f94:	f2 ff 25 e5 6f 00 00 	bnd jmp *0x6fe5(%rip)        # 0x8f80
    1f9b:	0f 1f 04 00          	nopl   (%rax,%rax,1)
    1f9f:	90                   	nop
    1fa0:	f3 0f 1e fa          	endbr64 
    1fa4:	f2 ff 25 dd 6f 00 00 	bnd jmp *0x6fdd(%rip)        # 0x8f88
    1fab:	0f 1f 04 00          	nopl   (%rax,%rax,1)
    1faf:	90                   	nop
    1fb0:	f3 0f 1e fa          	endbr64 
    1fb4:	f2 ff 25 d5 6f 00 00 	bnd jmp *0x6fd5(%rip)        # 0x8f90
    1fbb:	0f 1f 04 00          	nopl   (%rax,%rax,1)
    1fbf:	90                   	nop
    1fc0:	f3 0f 1e fa          	endbr64 
    1fc4:	f2 ff 25 cd 6f 00 00 	bnd jmp *0x6fcd(%rip)        # 0x8f98
    1fcb:	0f 1f 04 00          	nopl   (%rax,%rax,1)
    1fcf:	90                   	nop
    1fd0:	f3 0f 1e fa          	endbr64 
    1fd4:	f2 ff 25 c5 6f 00 00 	bnd jmp *0x6fc5(%rip)        # 0x8fa0
    1fdb:	0f 1f 04 00          	nopl   (%rax,%rax,1)
    1fdf:	90                   	nop
    1fe0:	f3 0f 1e fa          	endbr64 
    1fe4:	f2 ff 25 bd 6f 00 00 	bnd jmp *0x6fbd(%rip)        # 0x8fa8
    1feb:	0f 1f 04 00          	nopl   (%rax,%rax,1)
    1fef:	90                   	nop
    1ff0:	f3 0f 1e fa          	endbr64 
    1ff4:	f2 ff 25 b5 6f 00 00 	bnd jmp *0x6fb5(%rip)        # 0x8fb0
    1ffb:	0f 1f 04 00          	nopl   (%rax,%rax,1)
    1fff:	90                   	nop
    2000:	f3 0f 1e fa          	endbr64 
    2004:	f2 ff 25 ad 6f 00 00 	bnd jmp *0x6fad(%rip)        # 0x8fb8
    200b:	0f 1f 04 00          	nopl   (%rax,%rax,1)
    200f:	90                   	nop
    2010:	f3 0f 1e fa          	endbr64 
    2014:	f2 ff 25 a5 6f 00 00 	bnd jmp *0x6fa5(%rip)        # 0x8fc0
    201b:	0f 1f 04 00          	nopl   (%rax,%rax,1)
    201f:	90                   	nop
    2020:	f3 0f 1e fa          	endbr64 
    2024:	f2 ff 25 9d 6f 00 00 	bnd jmp *0x6f9d(%rip)        # 0x8fc8
    202b:	0f 1f 04 00          	nopl   (%rax,%rax,1)
    202f:	90                   	nop
    2030:	f3 0f 1e fa          	endbr64 
    2034:	f2 ff 25 95 6f 00 00 	bnd jmp *0x6f95(%rip)        # 0x8fd0
    203b:	0f 1f 04 00          	nopl   (%rax,%rax,1)
    203f:	90                   	nop
    2040:	f3 0f 1e fa          	endbr64 
    2044:	f2 ff 25 8d 6f 00 00 	bnd jmp *0x6f8d(%rip)        # 0x8fd8
    204b:	0f 1f 04 00          	nopl   (%rax,%rax,1)
    204f:	90                   	nop
    2050:	f3 0f 1e fa          	endbr64 
    2054:	f2 ff 25 85 6f 00 00 	bnd jmp *0x6f85(%rip)        # 0x8fe0
    205b:	0f 1f 04 00          	nopl   (%rax,%rax,1)
    205f:	90                   	nop
    2060:	f3 0f 1e fa          	endbr64 
    2064:	f2 ff 25 7d 6f 00 00 	bnd jmp *0x6f7d(%rip)        # 0x8fe8
    206b:	0f 1f 04 00          	nopl   (%rax,%rax,1)
    206f:	90                   	nop
    2070:	f3 0f 1e fa          	endbr64 
    2074:	f2 ff 25 75 6f 00 00 	bnd jmp *0x6f75(%rip)        # 0x8ff0
    207b:	0f 1f 04 00          	nopl   (%rax,%rax,1)
    207f:	90                   	nop
    2080:	f3 0f 1e fa          	endbr64 
    2084:	f2 ff 25 6d 6f 00 00 	bnd jmp *0x6f6d(%rip)        # 0x8ff8
    208b:	0f 1f 04 00          	nopl   (%rax,%rax,1)
    208f:	90                   	nop

Disassembly of section .text:

0000000000002090 <.text>:
    2090:	f3 0f 1e fa          	endbr64 
    2094:	31 ed                	xor    %ebp,%ebp
    2096:	49 89 d1             	mov    %rdx,%r9
    2099:	5e                   	pop    %rsi
    209a:	48 89 e2             	mov    %rsp,%rdx
    209d:	48 83 e4 f0          	and    $0xfffffffffffffff0,%rsp
    20a1:	50                   	push   %rax
    20a2:	54                   	push   %rsp
    20a3:	4c 8d 05 f6 36 00 00 	lea    0x36f6(%rip),%r8        # 0x57a0
    20aa:	48 8d 0d 7f 36 00 00 	lea    0x367f(%rip),%rcx        # 0x5730
    20b1:	48 8d 3d c1 00 00 00 	lea    0xc1(%rip),%rdi        # 0x2179
    20b8:	ff 15 3a 6d 00 00    	call   *0x6d3a(%rip)        # 0x8df8
    20be:	f4                   	hlt    
    20bf:	90                   	nop
    20c0:	48 8d 3d 81 6f 00 00 	lea    0x6f81(%rip),%rdi        # 0x9048
    20c7:	48 8d 05 7a 6f 00 00 	lea    0x6f7a(%rip),%rax        # 0x9048
    20ce:	48 39 f8             	cmp    %rdi,%rax
    20d1:	74 15                	je     0x20e8
    20d3:	48 8b 05 2e 6d 00 00 	mov    0x6d2e(%rip),%rax        # 0x8e08
    20da:	48 85 c0             	test   %rax,%rax
    20dd:	74 09                	je     0x20e8
    20df:	ff e0                	jmp    *%rax
    20e1:	0f 1f 80 00 00 00 00 	nopl   0x0(%rax)
    20e8:	c3                   	ret    
    20e9:	0f 1f 80 00 00 00 00 	nopl   0x0(%rax)
    20f0:	48 8d 3d 51 6f 00 00 	lea    0x6f51(%rip),%rdi        # 0x9048
    20f7:	48 8d 35 4a 6f 00 00 	lea    0x6f4a(%rip),%rsi        # 0x9048
    20fe:	48 29 fe             	sub    %rdi,%rsi
    2101:	48 89 f0             	mov    %rsi,%rax
    2104:	48 c1 ee 3f          	shr    $0x3f,%rsi
    2108:	48 c1 f8 03          	sar    $0x3,%rax
    210c:	48 01 c6             	add    %rax,%rsi
    210f:	48 d1 fe             	sar    %rsi
    2112:	74 14                	je     0x2128
    2114:	48 8b 05 f5 6c 00 00 	mov    0x6cf5(%rip),%rax        # 0x8e10
    211b:	48 85 c0             	test   %rax,%rax
    211e:	74 08                	je     0x2128
    2120:	ff e0                	jmp    *%rax
    2122:	66 0f 1f 44 00 00    	nopw   0x0(%rax,%rax,1)
    2128:	c3                   	ret    
    2129:	0f 1f 80 00 00 00 00 	nopl   0x0(%rax)
    2130:	f3 0f 1e fa          	endbr64 
    2134:	80 3d 25 6f 00 00 00 	cmpb   $0x0,0x6f25(%rip)        # 0x9060
    213b:	75 2b                	jne    0x2168
    213d:	55                   	push   %rbp
    213e:	48 83 3d d2 6c 00 00 	cmpq   $0x0,0x6cd2(%rip)        # 0x8e18
    2145:	00 
    2146:	48 89 e5             	mov    %rsp,%rbp
    2149:	74 0c                	je     0x2157
    214b:	48 8b 3d b6 6e 00 00 	mov    0x6eb6(%rip),%rdi        # 0x9008
    2152:	e8 09 fc ff ff       	call   0x1d60
    2157:	e8 64 ff ff ff       	call   0x20c0
    215c:	c6 05 fd 6e 00 00 01 	movb   $0x1,0x6efd(%rip)        # 0x9060
    2163:	5d                   	pop    %rbp
    2164:	c3                   	ret    
    2165:	0f 1f 00             	nopl   (%rax)
    2168:	c3                   	ret    
    2169:	0f 1f 80 00 00 00 00 	nopl   0x0(%rax)
    2170:	f3 0f 1e fa          	endbr64 
    2174:	e9 77 ff ff ff       	jmp    0x20f0
    2179:	f3 0f 1e fa          	endbr64 
    217d:	55                   	push   %rbp
    217e:	48 89 e5             	mov    %rsp,%rbp
    2181:	48 83 ec 10          	sub    $0x10,%rsp
    2185:	e8 8c 20 00 00       	call   0x4216
    218a:	e8 bf 21 00 00       	call   0x434e
    218f:	89 45 fc             	mov    %eax,-0x4(%rbp)
    2192:	83 7d fc 00          	cmpl   $0x0,-0x4(%rbp)
    2196:	74 11                	je     0x21a9
    2198:	8b 45 fc             	mov    -0x4(%rbp),%eax
    219b:	83 e8 01             	sub    $0x1,%eax
    219e:	89 c7                	mov    %eax,%edi
    21a0:	e8 d1 0b 00 00       	call   0x2d76
    21a5:	ff d0                	call   *%rax
    21a7:	eb dc                	jmp    0x2185
    21a9:	90                   	nop
    21aa:	b8 00 00 00 00       	mov    $0x0,%eax
    21af:	c9                   	leave  
    21b0:	c3                   	ret    
    21b1:	f3 0f 1e fa          	endbr64 
    21b5:	55                   	push   %rbp
    21b6:	48 89 e5             	mov    %rsp,%rbp
    21b9:	53                   	push   %rbx
    21ba:	48 83 ec 28          	sub    $0x28,%rsp
    21be:	48 89 7d d8          	mov    %rdi,-0x28(%rbp)
    21c2:	48 89 75 d0          	mov    %rsi,-0x30(%rbp)
    21c6:	48 8b 45 d0          	mov    -0x30(%rbp),%rax
    21ca:	48 89 c7             	mov    %rax,%rdi
    21cd:	e8 24 10 00 00       	call   0x31f6
    21d2:	48 89 45 e8          	mov    %rax,-0x18(%rbp)
    21d6:	48 8b 45 d0          	mov    -0x30(%rbp),%rax
    21da:	48 89 c7             	mov    %rax,%rdi
    21dd:	e8 14 10 00 00       	call   0x31f6
    21e2:	48 89 c3             	mov    %rax,%rbx
    21e5:	48 8b 45 d0          	mov    -0x30(%rbp),%rax
    21e9:	48 89 c7             	mov    %rax,%rdi
    21ec:	e8 d1 0f 00 00       	call   0x31c2
    21f1:	48 89 c1             	mov    %rax,%rcx
    21f4:	48 8b 45 d8          	mov    -0x28(%rbp),%rax
    21f8:	48 89 c2             	mov    %rax,%rdx
    21fb:	48 89 de             	mov    %rbx,%rsi
    21fe:	48 89 cf             	mov    %rcx,%rdi
    2201:	e8 25 10 00 00       	call   0x322b
    2206:	48 89 45 e0          	mov    %rax,-0x20(%rbp)
    220a:	48 8d 55 e8          	lea    -0x18(%rbp),%rdx
    220e:	48 8d 45 e0          	lea    -0x20(%rbp),%rax
    2212:	48 89 d6             	mov    %rdx,%rsi
    2215:	48 89 c7             	mov    %rax,%rdi
    2218:	e8 4a 10 00 00       	call   0x3267
    221d:	48 83 c4 28          	add    $0x28,%rsp
    2221:	5b                   	pop    %rbx
    2222:	5d                   	pop    %rbp
    2223:	c3                   	ret    
    2224:	f3 0f 1e fa          	endbr64 
    2228:	55                   	push   %rbp
    2229:	48 89 e5             	mov    %rsp,%rbp
    222c:	53                   	push   %rbx
    222d:	48 81 ec 98 00 00 00 	sub    $0x98,%rsp
    2234:	48 89 bd 68 ff ff ff 	mov    %rdi,-0x98(%rbp)
    223b:	64 48 8b 04 25 28 00 	mov    %fs:0x28,%rax
    2242:	00 00 
    2244:	48 89 45 e8          	mov    %rax,-0x18(%rbp)
    2248:	31 c0                	xor    %eax,%eax
    224a:	48 8d 45 98          	lea    -0x68(%rbp),%rax
    224e:	48 89 c7             	mov    %rax,%rdi
    2251:	e8 1a fb ff ff       	call   0x1d70
    2256:	48 8d 55 98          	lea    -0x68(%rbp),%rdx
    225a:	48 8d 45 c0          	lea    -0x40(%rbp),%rax
    225e:	48 8d 35 6b 35 00 00 	lea    0x356b(%rip),%rsi        # 0x57d0
    2265:	48 89 c7             	mov    %rax,%rdi
    2268:	e8 13 fb ff ff       	call   0x1d80
    226d:	48 8d 45 98          	lea    -0x68(%rbp),%rax
    2271:	48 89 c7             	mov    %rax,%rdi
    2274:	e8 17 fb ff ff       	call   0x1d90
    2279:	48 8b 85 68 ff ff ff 	mov    -0x98(%rbp),%rax
    2280:	48 89 45 a0          	mov    %rax,-0x60(%rbp)
    2284:	48 8b 45 a0          	mov    -0x60(%rbp),%rax
    2288:	48 89 c7             	mov    %rax,%rdi
    228b:	e8 10 fb ff ff       	call   0x1da0
    2290:	48 89 45 80          	mov    %rax,-0x80(%rbp)
    2294:	48 8b 45 a0          	mov    -0x60(%rbp),%rax
    2298:	48 89 c7             	mov    %rax,%rdi
    229b:	e8 10 fb ff ff       	call   0x1db0
    22a0:	48 89 45 88          	mov    %rax,-0x78(%rbp)
    22a4:	48 8d 55 88          	lea    -0x78(%rbp),%rdx
    22a8:	48 8d 45 80          	lea    -0x80(%rbp),%rax
    22ac:	48 89 d6             	mov    %rdx,%rsi
    22af:	48 89 c7             	mov    %rax,%rdi
    22b2:	e8 f0 0f 00 00       	call   0x32a7
    22b7:	84 c0                	test   %al,%al
    22b9:	0f 84 b3 00 00 00    	je     0x2372
    22bf:	48 8d 45 80          	lea    -0x80(%rbp),%rax
    22c3:	48 89 c7             	mov    %rax,%rdi
    22c6:	e8 41 10 00 00       	call   0x330c
    22cb:	48 89 45 a8          	mov    %rax,-0x58(%rbp)
    22cf:	c6 85 7f ff ff ff 00 	movb   $0x0,-0x81(%rbp)
    22d6:	48 8d 45 c0          	lea    -0x40(%rbp),%rax
    22da:	48 89 45 b0          	mov    %rax,-0x50(%rbp)
    22de:	48 8b 45 b0          	mov    -0x50(%rbp),%rax
    22e2:	48 89 c7             	mov    %rax,%rdi
    22e5:	e8 d6 fa ff ff       	call   0x1dc0
    22ea:	48 89 45 90          	mov    %rax,-0x70(%rbp)
    22ee:	48 8b 45 b0          	mov    -0x50(%rbp),%rax
    22f2:	48 89 c7             	mov    %rax,%rdi
    22f5:	e8 d6 fa ff ff       	call   0x1dd0
    22fa:	48 89 45 98          	mov    %rax,-0x68(%rbp)
    22fe:	48 8d 55 98          	lea    -0x68(%rbp),%rdx
    2302:	48 8d 45 90          	lea    -0x70(%rbp),%rax
    2306:	48 89 d6             	mov    %rdx,%rsi
    2309:	48 89 c7             	mov    %rax,%rdi
    230c:	e8 10 10 00 00       	call   0x3321
    2311:	84 c0                	test   %al,%al
    2313:	74 37                	je     0x234c
    2315:	48 8d 45 90          	lea    -0x70(%rbp),%rax
    2319:	48 89 c7             	mov    %rax,%rdi
    231c:	e8 65 10 00 00       	call   0x3386
    2321:	48 89 45 b8          	mov    %rax,-0x48(%rbp)
    2325:	48 8b 45 b8          	mov    -0x48(%rbp),%rax
    2329:	0f b6 10             	movzbl (%rax),%edx
    232c:	48 8b 45 a8          	mov    -0x58(%rbp),%rax
    2330:	0f b6 00             	movzbl (%rax),%eax
    2333:	38 c2                	cmp    %al,%dl
    2335:	75 07                	jne    0x233e
    2337:	c6 85 7f ff ff ff 01 	movb   $0x1,-0x81(%rbp)
    233e:	48 8d 45 90          	lea    -0x70(%rbp),%rax
    2342:	48 89 c7             	mov    %rax,%rdi
    2345:	e8 18 10 00 00       	call   0x3362
    234a:	eb b2                	jmp    0x22fe
    234c:	0f b6 85 7f ff ff ff 	movzbl -0x81(%rbp),%eax
    2353:	83 f0 01             	xor    $0x1,%eax
    2356:	84 c0                	test   %al,%al
    2358:	74 07                	je     0x2361
    235a:	bb 00 00 00 00       	mov    $0x0,%ebx
    235f:	eb 16                	jmp    0x2377
    2361:	48 8d 45 80          	lea    -0x80(%rbp),%rax
    2365:	48 89 c7             	mov    %rax,%rdi
    2368:	e8 7b 0f 00 00       	call   0x32e8
    236d:	e9 32 ff ff ff       	jmp    0x22a4
    2372:	bb 01 00 00 00       	mov    $0x1,%ebx
    2377:	48 8d 45 c0          	lea    -0x40(%rbp),%rax
    237b:	48 89 c7             	mov    %rax,%rdi
    237e:	e8 5d fa ff ff       	call   0x1de0
    2383:	89 d8                	mov    %ebx,%eax
    2385:	48 8b 4d e8          	mov    -0x18(%rbp),%rcx
    2389:	64 48 33 0c 25 28 00 	xor    %fs:0x28,%rcx
    2390:	00 00 
    2392:	74 25                	je     0x23b9
    2394:	eb 1e                	jmp    0x23b4
    2396:	f3 0f 1e fa          	endbr64 
    239a:	48 89 c3             	mov    %rax,%rbx
    239d:	48 8d 45 98          	lea    -0x68(%rbp),%rax
    23a1:	48 89 c7             	mov    %rax,%rdi
    23a4:	e8 e7 f9 ff ff       	call   0x1d90
    23a9:	48 89 d8             	mov    %rbx,%rax
    23ac:	48 89 c7             	mov    %rax,%rdi
    23af:	e8 3c fa ff ff       	call   0x1df0
    23b4:	e8 47 fa ff ff       	call   0x1e00
    23b9:	48 81 c4 98 00 00 00 	add    $0x98,%rsp
    23c0:	5b                   	pop    %rbx
    23c1:	5d                   	pop    %rbp
    23c2:	c3                   	ret    
    23c3:	f3 0f 1e fa          	endbr64 
    23c7:	55                   	push   %rbp
    23c8:	48 89 e5             	mov    %rsp,%rbp
    23cb:	48 83 ec 10          	sub    $0x10,%rsp
    23cf:	48 89 7d f8          	mov    %rdi,-0x8(%rbp)
    23d3:	48 8b 45 f8          	mov    -0x8(%rbp),%rax
    23d7:	48 89 c7             	mov    %rax,%rdi
    23da:	e8 31 fa ff ff       	call   0x1e10
    23df:	90                   	nop
    23e0:	c9                   	leave  
    23e1:	c3                   	ret    
    23e2:	f3 0f 1e fa          	endbr64 
    23e6:	55                   	push   %rbp
    23e7:	48 89 e5             	mov    %rsp,%rbp
    23ea:	53                   	push   %rbx
    23eb:	48 81 ec 88 00 00 00 	sub    $0x88,%rsp
    23f2:	64 48 8b 04 25 28 00 	mov    %fs:0x28,%rax
    23f9:	00 00 
    23fb:	48 89 45 e8          	mov    %rax,-0x18(%rbp)
    23ff:	31 c0                	xor    %eax,%eax
    2401:	48 8d 35 ff 33 00 00 	lea    0x33ff(%rip),%rsi        # 0x5807
    2408:	48 8b 05 11 6a 00 00 	mov    0x6a11(%rip),%rax        # 0x8e20
    240f:	48 89 c7             	mov    %rax,%rdi
    2412:	e8 09 fa ff ff       	call   0x1e20
    2417:	48 89 c2             	mov    %rax,%rdx
    241a:	48 8b 05 07 6a 00 00 	mov    0x6a07(%rip),%rax        # 0x8e28
    2421:	48 89 c6             	mov    %rax,%rsi
    2424:	48 89 d7             	mov    %rdx,%rdi
    2427:	e8 04 fa ff ff       	call   0x1e30
    242c:	48 8d 35 da 33 00 00 	lea    0x33da(%rip),%rsi        # 0x580d
    2433:	48 89 c7             	mov    %rax,%rdi
    2436:	e8 e5 f9 ff ff       	call   0x1e20
    243b:	48 89 c2             	mov    %rax,%rdx
    243e:	48 8b 05 e3 69 00 00 	mov    0x69e3(%rip),%rax        # 0x8e28
    2445:	48 89 c6             	mov    %rax,%rsi
    2448:	48 89 d7             	mov    %rdx,%rdi
    244b:	e8 e0 f9 ff ff       	call   0x1e30
    2450:	48 8d 45 80          	lea    -0x80(%rbp),%rax
    2454:	48 89 c7             	mov    %rax,%rdi
    2457:	e8 2f 1f 00 00       	call   0x438b
    245c:	48 8d 45 80          	lea    -0x80(%rbp),%rax
    2460:	48 89 c7             	mov    %rax,%rdi
    2463:	e8 d8 f9 ff ff       	call   0x1e40
    2468:	48 83 f8 01          	cmp    $0x1,%rax
    246c:	0f 95 c0             	setne  %al
    246f:	84 c0                	test   %al,%al
    2471:	74 16                	je     0x2489
    2473:	48 8d 3d 99 33 00 00 	lea    0x3399(%rip),%rdi        # 0x5813
    247a:	e8 87 1f 00 00       	call   0x4406
    247f:	bb 00 00 00 00       	mov    $0x0,%ebx
    2484:	e9 6d 01 00 00       	jmp    0x25f6
    2489:	48 8d 45 80          	lea    -0x80(%rbp),%rax
    248d:	48 8d 35 88 33 00 00 	lea    0x3388(%rip),%rsi        # 0x581c
    2494:	48 89 c7             	mov    %rax,%rdi
    2497:	e8 ff 0e 00 00       	call   0x339b
    249c:	84 c0                	test   %al,%al
    249e:	0f 84 cb 00 00 00    	je     0x256f
    24a4:	48 8d 35 73 33 00 00 	lea    0x3373(%rip),%rsi        # 0x581e
    24ab:	48 8d 05 ee 6b 00 00 	lea    0x6bee(%rip),%rax        # 0x90a0
    24b2:	48 89 c7             	mov    %rax,%rdi
    24b5:	e8 0f 0f 00 00       	call   0x33c9
    24ba:	84 c0                	test   %al,%al
    24bc:	0f 84 1b 01 00 00    	je     0x25dd
    24c2:	48 8d 05 d7 6b 00 00 	lea    0x6bd7(%rip),%rax        # 0x90a0
    24c9:	48 89 c6             	mov    %rax,%rsi
    24cc:	48 8b 05 4d 69 00 00 	mov    0x694d(%rip),%rax        # 0x8e20
    24d3:	48 89 c7             	mov    %rax,%rdi
    24d6:	e8 75 f9 ff ff       	call   0x1e50
    24db:	48 89 c2             	mov    %rax,%rdx
    24de:	48 8b 05 43 69 00 00 	mov    0x6943(%rip),%rax        # 0x8e28
    24e5:	48 89 c6             	mov    %rax,%rsi
    24e8:	48 89 d7             	mov    %rdx,%rdi
    24eb:	e8 40 f9 ff ff       	call   0x1e30
    24f0:	48 8d 85 7f ff ff ff 	lea    -0x81(%rbp),%rax
    24f7:	48 89 c7             	mov    %rax,%rdi
    24fa:	e8 71 f8 ff ff       	call   0x1d70
    24ff:	48 8d 95 7f ff ff ff 	lea    -0x81(%rbp),%rdx
    2506:	48 8d 45 c0          	lea    -0x40(%rbp),%rax
    250a:	48 8d 35 0e 33 00 00 	lea    0x330e(%rip),%rsi        # 0x581f
    2511:	48 89 c7             	mov    %rax,%rdi
    2514:	e8 67 f8 ff ff       	call   0x1d80
    2519:	48 8d 45 a0          	lea    -0x60(%rbp),%rax
    251d:	48 8d 4d c0          	lea    -0x40(%rbp),%rcx
    2521:	48 8d 15 78 6b 00 00 	lea    0x6b78(%rip),%rdx        # 0x90a0
    2528:	48 89 ce             	mov    %rcx,%rsi
    252b:	48 89 c7             	mov    %rax,%rdi
    252e:	e8 c2 0e 00 00       	call   0x33f5
    2533:	48 8d 55 a0          	lea    -0x60(%rbp),%rdx
    2537:	48 8d 45 80          	lea    -0x80(%rbp),%rax
    253b:	48 89 d6             	mov    %rdx,%rsi
    253e:	48 89 c7             	mov    %rax,%rdi
    2541:	e8 1a f9 ff ff       	call   0x1e60
    2546:	48 8d 45 a0          	lea    -0x60(%rbp),%rax
    254a:	48 89 c7             	mov    %rax,%rdi
    254d:	e8 8e f8 ff ff       	call   0x1de0
    2552:	48 8d 45 c0          	lea    -0x40(%rbp),%rax
    2556:	48 89 c7             	mov    %rax,%rdi
    2559:	e8 82 f8 ff ff       	call   0x1de0
    255e:	48 8d 85 7f ff ff ff 	lea    -0x81(%rbp),%rax
    2565:	48 89 c7             	mov    %rax,%rdi
    2568:	e8 23 f8 ff ff       	call   0x1d90
    256d:	eb 6e                	jmp    0x25dd
    256f:	48 8d 45 80          	lea    -0x80(%rbp),%rax
    2573:	48 8d 35 b0 32 00 00 	lea    0x32b0(%rip),%rsi        # 0x582a
    257a:	48 89 c7             	mov    %rax,%rdi
    257d:	e8 19 0e 00 00       	call   0x339b
    2582:	84 c0                	test   %al,%al
    2584:	74 57                	je     0x25dd
    2586:	48 8d 85 7f ff ff ff 	lea    -0x81(%rbp),%rax
    258d:	48 89 c7             	mov    %rax,%rdi
    2590:	e8 db f7 ff ff       	call   0x1d70
    2595:	48 8d 95 7f ff ff ff 	lea    -0x81(%rbp),%rdx
    259c:	48 8d 45 c0          	lea    -0x40(%rbp),%rax
    25a0:	48 8d 35 85 32 00 00 	lea    0x3285(%rip),%rsi        # 0x582c
    25a7:	48 89 c7             	mov    %rax,%rdi
    25aa:	e8 d1 f7 ff ff       	call   0x1d80
    25af:	48 8d 55 c0          	lea    -0x40(%rbp),%rdx
    25b3:	48 8d 45 80          	lea    -0x80(%rbp),%rax
    25b7:	48 89 d6             	mov    %rdx,%rsi
    25ba:	48 89 c7             	mov    %rax,%rdi
    25bd:	e8 9e f8 ff ff       	call   0x1e60
    25c2:	48 8d 45 c0          	lea    -0x40(%rbp),%rax
    25c6:	48 89 c7             	mov    %rax,%rdi
    25c9:	e8 12 f8 ff ff       	call   0x1de0
    25ce:	48 8d 85 7f ff ff ff 	lea    -0x81(%rbp),%rax
    25d5:	48 89 c7             	mov    %rax,%rdi
    25d8:	e8 b3 f7 ff ff       	call   0x1d90
    25dd:	48 8d 45 80          	lea    -0x80(%rbp),%rax
    25e1:	48 89 c7             	mov    %rax,%rdi
    25e4:	e8 87 f8 ff ff       	call   0x1e70
    25e9:	48 89 c7             	mov    %rax,%rdi
    25ec:	e8 d2 fd ff ff       	call   0x23c3
    25f1:	bb 01 00 00 00       	mov    $0x1,%ebx
    25f6:	48 8d 45 80          	lea    -0x80(%rbp),%rax
    25fa:	48 89 c7             	mov    %rax,%rdi
    25fd:	e8 de f7 ff ff       	call   0x1de0
    2602:	83 fb 01             	cmp    $0x1,%ebx
    2605:	48 8b 45 e8          	mov    -0x18(%rbp),%rax
    2609:	64 48 33 04 25 28 00 	xor    %fs:0x28,%rax
    2610:	00 00 
    2612:	74 6a                	je     0x267e
    2614:	eb 63                	jmp    0x2679
    2616:	f3 0f 1e fa          	endbr64 
    261a:	48 89 c3             	mov    %rax,%rbx
    261d:	48 8d 45 c0          	lea    -0x40(%rbp),%rax
    2621:	48 89 c7             	mov    %rax,%rdi
    2624:	e8 b7 f7 ff ff       	call   0x1de0
    2629:	eb 07                	jmp    0x2632
    262b:	f3 0f 1e fa          	endbr64 
    262f:	48 89 c3             	mov    %rax,%rbx
    2632:	48 8d 85 7f ff ff ff 	lea    -0x81(%rbp),%rax
    2639:	48 89 c7             	mov    %rax,%rdi
    263c:	e8 4f f7 ff ff       	call   0x1d90
    2641:	eb 1f                	jmp    0x2662
    2643:	f3 0f 1e fa          	endbr64 
    2647:	48 89 c3             	mov    %rax,%rbx
    264a:	48 8d 85 7f ff ff ff 	lea    -0x81(%rbp),%rax
    2651:	48 89 c7             	mov    %rax,%rdi
    2654:	e8 37 f7 ff ff       	call   0x1d90
    2659:	eb 07                	jmp    0x2662
    265b:	f3 0f 1e fa          	endbr64 
    265f:	48 89 c3             	mov    %rax,%rbx
    2662:	48 8d 45 80          	lea    -0x80(%rbp),%rax
    2666:	48 89 c7             	mov    %rax,%rdi
    2669:	e8 72 f7 ff ff       	call   0x1de0
    266e:	48 89 d8             	mov    %rbx,%rax
    2671:	48 89 c7             	mov    %rax,%rdi
    2674:	e8 77 f7 ff ff       	call   0x1df0
    2679:	e8 82 f7 ff ff       	call   0x1e00
    267e:	48 81 c4 88 00 00 00 	add    $0x88,%rsp
    2685:	5b                   	pop    %rbx
    2686:	5d                   	pop    %rbp
    2687:	c3                   	ret    
    2688:	f3 0f 1e fa          	endbr64 
    268c:	55                   	push   %rbp
    268d:	48 89 e5             	mov    %rsp,%rbp
    2690:	53                   	push   %rbx
    2691:	48 83 ec 68          	sub    $0x68,%rsp
    2695:	64 48 8b 04 25 28 00 	mov    %fs:0x28,%rax
    269c:	00 00 
    269e:	48 89 45 e8          	mov    %rax,-0x18(%rbp)
    26a2:	31 c0                	xor    %eax,%eax
    26a4:	48 8d 35 84 31 00 00 	lea    0x3184(%rip),%rsi        # 0x582f
    26ab:	48 8b 05 6e 67 00 00 	mov    0x676e(%rip),%rax        # 0x8e20
    26b2:	48 89 c7             	mov    %rax,%rdi
    26b5:	e8 66 f7 ff ff       	call   0x1e20
    26ba:	e8 8f 1c 00 00       	call   0x434e
    26bf:	89 45 9c             	mov    %eax,-0x64(%rbp)
    26c2:	83 7d 9c 01          	cmpl   $0x1,-0x64(%rbp)
    26c6:	74 10                	je     0x26d8
    26c8:	83 7d 9c 02          	cmpl   $0x2,-0x64(%rbp)
    26cc:	74 0a                	je     0x26d8
    26ce:	e8 fd 1c 00 00       	call   0x43d0
    26d3:	e9 08 02 00 00       	jmp    0x28e0
    26d8:	83 7d 9c 01          	cmpl   $0x1,-0x64(%rbp)
    26dc:	75 58                	jne    0x2736
    26de:	48 8d 45 c0          	lea    -0x40(%rbp),%rax
    26e2:	48 89 c7             	mov    %rax,%rdi
    26e5:	e8 a1 1c 00 00       	call   0x438b
    26ea:	48 8d 45 c0          	lea    -0x40(%rbp),%rax
    26ee:	48 89 c7             	mov    %rax,%rdi
    26f1:	e8 7a f7 ff ff       	call   0x1e70
    26f6:	48 89 c7             	mov    %rax,%rdi
    26f9:	e8 82 f7 ff ff       	call   0x1e80
    26fe:	48 89 c6             	mov    %rax,%rsi
    2701:	48 8b 05 18 67 00 00 	mov    0x6718(%rip),%rax        # 0x8e20
    2708:	48 89 c7             	mov    %rax,%rdi
    270b:	e8 10 f7 ff ff       	call   0x1e20
    2710:	48 89 c2             	mov    %rax,%rdx
    2713:	48 8b 05 0e 67 00 00 	mov    0x670e(%rip),%rax        # 0x8e28
    271a:	48 89 c6             	mov    %rax,%rsi
    271d:	48 89 d7             	mov    %rdx,%rdi
    2720:	e8 0b f7 ff ff       	call   0x1e30
    2725:	48 8d 45 c0          	lea    -0x40(%rbp),%rax
    2729:	48 89 c7             	mov    %rax,%rdi
    272c:	e8 af f6 ff ff       	call   0x1de0
    2731:	e9 aa 01 00 00       	jmp    0x28e0
    2736:	83 7d 9c 02          	cmpl   $0x2,-0x64(%rbp)
    273a:	0f 85 a0 01 00 00    	jne    0x28e0
    2740:	48 8d 45 a0          	lea    -0x60(%rbp),%rax
    2744:	48 89 c7             	mov    %rax,%rdi
    2747:	e8 3f 1c 00 00       	call   0x438b
    274c:	48 8d 45 a0          	lea    -0x60(%rbp),%rax
    2750:	48 8d 15 29 69 00 00 	lea    0x6929(%rip),%rdx        # 0x9080
    2757:	48 89 d6             	mov    %rdx,%rsi
    275a:	48 89 c7             	mov    %rax,%rdi
    275d:	e8 4f fa ff ff       	call   0x21b1
    2762:	84 c0                	test   %al,%al
    2764:	75 13                	jne    0x2779
    2766:	48 8d 45 a0          	lea    -0x60(%rbp),%rax
    276a:	48 89 c7             	mov    %rax,%rdi
    276d:	e8 b2 fa ff ff       	call   0x2224
    2772:	83 f0 01             	xor    $0x1,%eax
    2775:	84 c0                	test   %al,%al
    2777:	74 07                	je     0x2780
    2779:	b8 01 00 00 00       	mov    $0x1,%eax
    277e:	eb 05                	jmp    0x2785
    2780:	b8 00 00 00 00       	mov    $0x0,%eax
    2785:	84 c0                	test   %al,%al
    2787:	74 3c                	je     0x27c5
    2789:	48 8d 45 c0          	lea    -0x40(%rbp),%rax
    278d:	48 8d 4d a0          	lea    -0x60(%rbp),%rcx
    2791:	48 8d 15 a6 30 00 00 	lea    0x30a6(%rip),%rdx        # 0x583e
    2798:	48 89 ce             	mov    %rcx,%rsi
    279b:	48 89 c7             	mov    %rax,%rdi
    279e:	e8 e4 08 00 00       	call   0x3087
    27a3:	48 8d 45 c0          	lea    -0x40(%rbp),%rax
    27a7:	48 89 c7             	mov    %rax,%rdi
    27aa:	e8 a7 1c 00 00       	call   0x4456
    27af:	48 8d 45 c0          	lea    -0x40(%rbp),%rax
    27b3:	48 89 c7             	mov    %rax,%rdi
    27b6:	e8 25 f6 ff ff       	call   0x1de0
    27bb:	bb 00 00 00 00       	mov    $0x0,%ebx
    27c0:	e9 a4 00 00 00       	jmp    0x2869
    27c5:	48 8d 45 c0          	lea    -0x40(%rbp),%rax
    27c9:	48 89 c7             	mov    %rax,%rdi
    27cc:	e8 ba 1b 00 00       	call   0x438b
    27d1:	48 8d 45 c0          	lea    -0x40(%rbp),%rax
    27d5:	48 89 c7             	mov    %rax,%rdi
    27d8:	e8 93 f6 ff ff       	call   0x1e70
    27dd:	48 89 c3             	mov    %rax,%rbx
    27e0:	48 8d 45 a0          	lea    -0x60(%rbp),%rax
    27e4:	48 89 c7             	mov    %rax,%rdi
    27e7:	e8 84 f6 ff ff       	call   0x1e70
    27ec:	ba 01 00 00 00       	mov    $0x1,%edx
    27f1:	48 89 de             	mov    %rbx,%rsi
    27f4:	48 89 c7             	mov    %rax,%rdi
    27f7:	e8 94 f6 ff ff       	call   0x1e90
    27fc:	48 8d 45 a0          	lea    -0x60(%rbp),%rax
    2800:	48 89 c6             	mov    %rax,%rsi
    2803:	48 8b 05 16 66 00 00 	mov    0x6616(%rip),%rax        # 0x8e20
    280a:	48 89 c7             	mov    %rax,%rdi
    280d:	e8 3e f6 ff ff       	call   0x1e50
    2812:	48 8d 35 3b 30 00 00 	lea    0x303b(%rip),%rsi        # 0x5854
    2819:	48 89 c7             	mov    %rax,%rdi
    281c:	e8 ff f5 ff ff       	call   0x1e20
    2821:	48 89 c3             	mov    %rax,%rbx
    2824:	48 8d 45 a0          	lea    -0x60(%rbp),%rax
    2828:	48 89 c7             	mov    %rax,%rdi
    282b:	e8 40 f6 ff ff       	call   0x1e70
    2830:	48 89 c7             	mov    %rax,%rdi
    2833:	e8 48 f6 ff ff       	call   0x1e80
    2838:	48 89 c6             	mov    %rax,%rsi
    283b:	48 89 df             	mov    %rbx,%rdi
    283e:	e8 dd f5 ff ff       	call   0x1e20
    2843:	48 89 c2             	mov    %rax,%rdx
    2846:	48 8b 05 db 65 00 00 	mov    0x65db(%rip),%rax        # 0x8e28
    284d:	48 89 c6             	mov    %rax,%rsi
    2850:	48 89 d7             	mov    %rdx,%rdi
    2853:	e8 d8 f5 ff ff       	call   0x1e30
    2858:	48 8d 45 c0          	lea    -0x40(%rbp),%rax
    285c:	48 89 c7             	mov    %rax,%rdi
    285f:	e8 7c f5 ff ff       	call   0x1de0
    2864:	bb 01 00 00 00       	mov    $0x1,%ebx
    2869:	48 8d 45 a0          	lea    -0x60(%rbp),%rax
    286d:	48 89 c7             	mov    %rax,%rdi
    2870:	e8 6b f5 ff ff       	call   0x1de0
    2875:	83 fb 01             	cmp    $0x1,%ebx
    2878:	eb 66                	jmp    0x28e0
    287a:	f3 0f 1e fa          	endbr64 
    287e:	48 89 c3             	mov    %rax,%rbx
    2881:	48 8d 45 c0          	lea    -0x40(%rbp),%rax
    2885:	48 89 c7             	mov    %rax,%rdi
    2888:	e8 53 f5 ff ff       	call   0x1de0
    288d:	48 89 d8             	mov    %rbx,%rax
    2890:	48 89 c7             	mov    %rax,%rdi
    2893:	e8 58 f5 ff ff       	call   0x1df0
    2898:	f3 0f 1e fa          	endbr64 
    289c:	48 89 c3             	mov    %rax,%rbx
    289f:	48 8d 45 c0          	lea    -0x40(%rbp),%rax
    28a3:	48 89 c7             	mov    %rax,%rdi
    28a6:	e8 35 f5 ff ff       	call   0x1de0
    28ab:	eb 1c                	jmp    0x28c9
    28ad:	f3 0f 1e fa          	endbr64 
    28b1:	48 89 c3             	mov    %rax,%rbx
    28b4:	48 8d 45 c0          	lea    -0x40(%rbp),%rax
    28b8:	48 89 c7             	mov    %rax,%rdi
    28bb:	e8 20 f5 ff ff       	call   0x1de0
    28c0:	eb 07                	jmp    0x28c9
    28c2:	f3 0f 1e fa          	endbr64 
    28c6:	48 89 c3             	mov    %rax,%rbx
    28c9:	48 8d 45 a0          	lea    -0x60(%rbp),%rax
    28cd:	48 89 c7             	mov    %rax,%rdi
    28d0:	e8 0b f5 ff ff       	call   0x1de0
    28d5:	48 89 d8             	mov    %rbx,%rax
    28d8:	48 89 c7             	mov    %rax,%rdi
    28db:	e8 10 f5 ff ff       	call   0x1df0
    28e0:	48 8b 45 e8          	mov    -0x18(%rbp),%rax
    28e4:	64 48 33 04 25 28 00 	xor    %fs:0x28,%rax
    28eb:	00 00 
    28ed:	74 05                	je     0x28f4
    28ef:	e8 0c f5 ff ff       	call   0x1e00
    28f4:	48 83 c4 68          	add    $0x68,%rsp
    28f8:	5b                   	pop    %rbx
    28f9:	5d                   	pop    %rbp
    28fa:	c3                   	ret    
    28fb:	f3 0f 1e fa          	endbr64 
    28ff:	55                   	push   %rbp
    2900:	48 89 e5             	mov    %rsp,%rbp
    2903:	53                   	push   %rbx
    2904:	48 83 ec 68          	sub    $0x68,%rsp
    2908:	64 48 8b 04 25 28 00 	mov    %fs:0x28,%rax
    290f:	00 00 
    2911:	48 89 45 e8          	mov    %rax,-0x18(%rbp)
    2915:	31 c0                	xor    %eax,%eax
    2917:	48 b8 2f 74 6d 70 2f 	movabs $0x6572642f706d742f,%rax
    291e:	64 72 65 
    2921:	48 ba 61 6d 68 61 63 	movabs $0x582e6b6361686d61,%rdx
    2928:	6b 2e 58 
    292b:	48 89 45 a0          	mov    %rax,-0x60(%rbp)
    292f:	48 89 55 a8          	mov    %rdx,-0x58(%rbp)
    2933:	c7 45 b0 58 58 58 58 	movl   $0x58585858,-0x50(%rbp)
    293a:	66 c7 45 b4 58 00    	movw   $0x58,-0x4c(%rbp)
    2940:	48 8d 45 9f          	lea    -0x61(%rbp),%rax
    2944:	48 89 c7             	mov    %rax,%rdi
    2947:	e8 24 f4 ff ff       	call   0x1d70
    294c:	48 8d 45 a0          	lea    -0x60(%rbp),%rax
    2950:	48 89 c7             	mov    %rax,%rdi
    2953:	e8 48 f5 ff ff       	call   0x1ea0
    2958:	48 89 c1             	mov    %rax,%rcx
    295b:	48 8d 55 9f          	lea    -0x61(%rbp),%rdx
    295f:	48 8d 45 c0          	lea    -0x40(%rbp),%rax
    2963:	48 89 ce             	mov    %rcx,%rsi
    2966:	48 89 c7             	mov    %rax,%rdi
    2969:	e8 12 f4 ff ff       	call   0x1d80
    296e:	48 8d 45 c0          	lea    -0x40(%rbp),%rax
    2972:	48 89 c6             	mov    %rax,%rsi
    2975:	48 8d 05 24 67 00 00 	lea    0x6724(%rip),%rax        # 0x90a0
    297c:	48 89 c7             	mov    %rax,%rdi
    297f:	e8 dc f4 ff ff       	call   0x1e60
    2984:	48 8d 45 c0          	lea    -0x40(%rbp),%rax
    2988:	48 89 c7             	mov    %rax,%rdi
    298b:	e8 50 f4 ff ff       	call   0x1de0
    2990:	48 8d 45 9f          	lea    -0x61(%rbp),%rax
    2994:	48 89 c7             	mov    %rax,%rdi
    2997:	e8 f4 f3 ff ff       	call   0x1d90
    299c:	48 8d 35 b3 2e 00 00 	lea    0x2eb3(%rip),%rsi        # 0x5856
    29a3:	48 8b 05 76 64 00 00 	mov    0x6476(%rip),%rax        # 0x8e20
    29aa:	48 89 c7             	mov    %rax,%rdi
    29ad:	e8 6e f4 ff ff       	call   0x1e20
    29b2:	48 89 c3             	mov    %rax,%rbx
    29b5:	48 8d 45 c0          	lea    -0x40(%rbp),%rax
    29b9:	48 8d 15 e0 66 00 00 	lea    0x66e0(%rip),%rdx        # 0x90a0
    29c0:	48 89 d6             	mov    %rdx,%rsi
    29c3:	48 89 c7             	mov    %rax,%rdi
    29c6:	e8 e5 f4 ff ff       	call   0x1eb0
    29cb:	48 8d 45 c0          	lea    -0x40(%rbp),%rax
    29cf:	48 89 c6             	mov    %rax,%rsi
    29d2:	48 89 df             	mov    %rbx,%rdi
    29d5:	e8 76 f4 ff ff       	call   0x1e50
    29da:	48 89 c2             	mov    %rax,%rdx
    29dd:	48 8b 05 44 64 00 00 	mov    0x6444(%rip),%rax        # 0x8e28
    29e4:	48 89 c6             	mov    %rax,%rsi
    29e7:	48 89 d7             	mov    %rdx,%rdi
    29ea:	e8 41 f4 ff ff       	call   0x1e30
    29ef:	48 8d 45 c0          	lea    -0x40(%rbp),%rax
    29f3:	48 89 c7             	mov    %rax,%rdi
    29f6:	e8 e5 f3 ff ff       	call   0x1de0
    29fb:	90                   	nop
    29fc:	48 8b 45 e8          	mov    -0x18(%rbp),%rax
    2a00:	64 48 33 04 25 28 00 	xor    %fs:0x28,%rax
    2a07:	00 00 
    2a09:	74 43                	je     0x2a4e
    2a0b:	eb 3c                	jmp    0x2a49
    2a0d:	f3 0f 1e fa          	endbr64 
    2a11:	48 89 c3             	mov    %rax,%rbx
    2a14:	48 8d 45 9f          	lea    -0x61(%rbp),%rax
    2a18:	48 89 c7             	mov    %rax,%rdi
    2a1b:	e8 70 f3 ff ff       	call   0x1d90
    2a20:	48 89 d8             	mov    %rbx,%rax
    2a23:	48 89 c7             	mov    %rax,%rdi
    2a26:	e8 c5 f3 ff ff       	call   0x1df0
    2a2b:	f3 0f 1e fa          	endbr64 
    2a2f:	48 89 c3             	mov    %rax,%rbx
    2a32:	48 8d 45 c0          	lea    -0x40(%rbp),%rax
    2a36:	48 89 c7             	mov    %rax,%rdi
    2a39:	e8 a2 f3 ff ff       	call   0x1de0
    2a3e:	48 89 d8             	mov    %rbx,%rax
    2a41:	48 89 c7             	mov    %rax,%rdi
    2a44:	e8 a7 f3 ff ff       	call   0x1df0
    2a49:	e8 b2 f3 ff ff       	call   0x1e00
    2a4e:	48 83 c4 68          	add    $0x68,%rsp
    2a52:	5b                   	pop    %rbx
    2a53:	5d                   	pop    %rbp
    2a54:	c3                   	ret    
    2a55:	f3 0f 1e fa          	endbr64 
    2a59:	55                   	push   %rbp
    2a5a:	48 89 e5             	mov    %rsp,%rbp
    2a5d:	53                   	push   %rbx
    2a5e:	48 81 ec b8 02 00 00 	sub    $0x2b8,%rsp
    2a65:	64 48 8b 04 25 28 00 	mov    %fs:0x28,%rax
    2a6c:	00 00 
    2a6e:	48 89 45 e8          	mov    %rax,-0x18(%rbp)
    2a72:	31 c0                	xor    %eax,%eax
    2a74:	48 8d 35 a3 2d 00 00 	lea    0x2da3(%rip),%rsi        # 0x581e
    2a7b:	48 8d 05 1e 66 00 00 	lea    0x661e(%rip),%rax        # 0x90a0
    2a82:	48 89 c7             	mov    %rax,%rdi
    2a85:	e8 11 09 00 00       	call   0x339b
    2a8a:	84 c0                	test   %al,%al
    2a8c:	74 11                	je     0x2a9f
    2a8e:	48 8d 3d e3 2d 00 00 	lea    0x2de3(%rip),%rdi        # 0x5878
    2a95:	e8 6c 19 00 00       	call   0x4406
    2a9a:	e9 b9 02 00 00       	jmp    0x2d58
    2a9f:	48 8d 35 fa 2d 00 00 	lea    0x2dfa(%rip),%rsi        # 0x58a0
    2aa6:	48 8b 05 73 63 00 00 	mov    0x6373(%rip),%rax        # 0x8e20
    2aad:	48 89 c7             	mov    %rax,%rdi
    2ab0:	e8 6b f3 ff ff       	call   0x1e20
    2ab5:	48 8d 85 60 fd ff ff 	lea    -0x2a0(%rbp),%rax
    2abc:	48 89 c7             	mov    %rax,%rdi
    2abf:	e8 c7 18 00 00       	call   0x438b
    2ac4:	48 8d 85 60 fd ff ff 	lea    -0x2a0(%rbp),%rax
    2acb:	ba 00 00 00 00       	mov    $0x0,%edx
    2ad0:	48 8d 35 d5 2d 00 00 	lea    0x2dd5(%rip),%rsi        # 0x58ac
    2ad7:	48 89 c7             	mov    %rax,%rdi
    2ada:	e8 e1 f3 ff ff       	call   0x1ec0
    2adf:	48 83 f8 ff          	cmp    $0xffffffffffffffff,%rax
    2ae3:	75 21                	jne    0x2b06
    2ae5:	48 8d 85 60 fd ff ff 	lea    -0x2a0(%rbp),%rax
    2aec:	ba 00 00 00 00       	mov    $0x0,%edx
    2af1:	48 8d 35 b7 2d 00 00 	lea    0x2db7(%rip),%rsi        # 0x58af
    2af8:	48 89 c7             	mov    %rax,%rdi
    2afb:	e8 c0 f3 ff ff       	call   0x1ec0
    2b00:	48 83 f8 ff          	cmp    $0xffffffffffffffff,%rax
    2b04:	74 07                	je     0x2b0d
    2b06:	b8 01 00 00 00       	mov    $0x1,%eax
    2b0b:	eb 05                	jmp    0x2b12
    2b0d:	b8 00 00 00 00       	mov    $0x0,%eax
    2b12:	84 c0                	test   %al,%al
    2b14:	74 16                	je     0x2b2c
    2b16:	48 8d 3d 9b 2d 00 00 	lea    0x2d9b(%rip),%rdi        # 0x58b8
    2b1d:	e8 e4 18 00 00       	call   0x4406
    2b22:	bb 00 00 00 00       	mov    $0x0,%ebx
    2b27:	e9 7c 01 00 00       	jmp    0x2ca8
    2b2c:	48 8d 35 a6 2d 00 00 	lea    0x2da6(%rip),%rsi        # 0x58d9
    2b33:	48 8b 05 e6 62 00 00 	mov    0x62e6(%rip),%rax        # 0x8e20
    2b3a:	48 89 c7             	mov    %rax,%rdi
    2b3d:	e8 de f2 ff ff       	call   0x1e20
    2b42:	48 8d 85 80 fd ff ff 	lea    -0x280(%rbp),%rax
    2b49:	48 89 c7             	mov    %rax,%rdi
    2b4c:	e8 3a 18 00 00       	call   0x438b
    2b51:	48 8d 85 80 fd ff ff 	lea    -0x280(%rbp),%rax
    2b58:	48 89 c7             	mov    %rax,%rdi
    2b5b:	e8 e0 f2 ff ff       	call   0x1e40
    2b60:	48 3d 40 0d 03 00    	cmp    $0x30d40,%rax
    2b66:	0f 97 c0             	seta   %al
    2b69:	84 c0                	test   %al,%al
    2b6b:	74 16                	je     0x2b83
    2b6d:	48 8d 3d 82 2d 00 00 	lea    0x2d82(%rip),%rdi        # 0x58f6
    2b74:	e8 8d 18 00 00       	call   0x4406
    2b79:	bb 00 00 00 00       	mov    $0x0,%ebx
    2b7e:	e9 05 01 00 00       	jmp    0x2c88
    2b83:	48 8d 85 40 fd ff ff 	lea    -0x2c0(%rbp),%rax
    2b8a:	48 8d 95 80 fd ff ff 	lea    -0x280(%rbp),%rdx
    2b91:	48 89 d6             	mov    %rdx,%rsi
    2b94:	48 89 c7             	mov    %rax,%rdi
    2b97:	e8 b7 1b 00 00       	call   0x4753
    2b9c:	48 8d 85 e0 fd ff ff 	lea    -0x220(%rbp),%rax
    2ba3:	48 89 c7             	mov    %rax,%rdi
    2ba6:	e8 25 f3 ff ff       	call   0x1ed0
    2bab:	48 8d 85 a0 fd ff ff 	lea    -0x260(%rbp),%rax
    2bb2:	48 8d 15 f6 2c 00 00 	lea    0x2cf6(%rip),%rdx        # 0x58af
    2bb9:	48 8d 0d e0 64 00 00 	lea    0x64e0(%rip),%rcx        # 0x90a0
    2bc0:	48 89 ce             	mov    %rcx,%rsi
    2bc3:	48 89 c7             	mov    %rax,%rdi
    2bc6:	e8 bc 04 00 00       	call   0x3087
    2bcb:	48 8d 85 c0 fd ff ff 	lea    -0x240(%rbp),%rax
    2bd2:	48 8d 95 60 fd ff ff 	lea    -0x2a0(%rbp),%rdx
    2bd9:	48 8d 8d a0 fd ff ff 	lea    -0x260(%rbp),%rcx
    2be0:	48 89 ce             	mov    %rcx,%rsi
    2be3:	48 89 c7             	mov    %rax,%rdi
    2be6:	e8 0a 08 00 00       	call   0x33f5
    2beb:	48 8d 8d c0 fd ff ff 	lea    -0x240(%rbp),%rcx
    2bf2:	48 8d 85 e0 fd ff ff 	lea    -0x220(%rbp),%rax
    2bf9:	ba 04 00 00 00       	mov    $0x4,%edx
    2bfe:	48 89 ce             	mov    %rcx,%rsi
    2c01:	48 89 c7             	mov    %rax,%rdi
    2c04:	e8 d7 f2 ff ff       	call   0x1ee0
    2c09:	48 8d 85 c0 fd ff ff 	lea    -0x240(%rbp),%rax
    2c10:	48 89 c7             	mov    %rax,%rdi
    2c13:	e8 c8 f1 ff ff       	call   0x1de0
    2c18:	48 8d 85 a0 fd ff ff 	lea    -0x260(%rbp),%rax
    2c1f:	48 89 c7             	mov    %rax,%rdi
    2c22:	e8 b9 f1 ff ff       	call   0x1de0
    2c27:	48 8d 85 40 fd ff ff 	lea    -0x2c0(%rbp),%rax
    2c2e:	48 89 c7             	mov    %rax,%rdi
    2c31:	e8 e0 08 00 00       	call   0x3516
    2c36:	48 89 c3             	mov    %rax,%rbx
    2c39:	48 8d 85 40 fd ff ff 	lea    -0x2c0(%rbp),%rax
    2c40:	be 00 00 00 00       	mov    $0x0,%esi
    2c45:	48 89 c7             	mov    %rax,%rdi
    2c48:	e8 a9 08 00 00       	call   0x34f6
    2c4d:	48 89 c1             	mov    %rax,%rcx
    2c50:	48 8d 85 e0 fd ff ff 	lea    -0x220(%rbp),%rax
    2c57:	48 89 da             	mov    %rbx,%rdx
    2c5a:	48 89 ce             	mov    %rcx,%rsi
    2c5d:	48 89 c7             	mov    %rax,%rdi
    2c60:	e8 8b f2 ff ff       	call   0x1ef0
    2c65:	48 8d 85 e0 fd ff ff 	lea    -0x220(%rbp),%rax
    2c6c:	48 89 c7             	mov    %rax,%rdi
    2c6f:	e8 8c f2 ff ff       	call   0x1f00
    2c74:	48 8d 85 40 fd ff ff 	lea    -0x2c0(%rbp),%rax
    2c7b:	48 89 c7             	mov    %rax,%rdi
    2c7e:	e8 bd 07 00 00       	call   0x3440
    2c83:	bb 01 00 00 00       	mov    $0x1,%ebx
    2c88:	48 8d 85 80 fd ff ff 	lea    -0x280(%rbp),%rax
    2c8f:	48 89 c7             	mov    %rax,%rdi
    2c92:	e8 49 f1 ff ff       	call   0x1de0
    2c97:	83 fb 01             	cmp    $0x1,%ebx
    2c9a:	74 07                	je     0x2ca3
    2c9c:	bb 00 00 00 00       	mov    $0x0,%ebx
    2ca1:	eb 05                	jmp    0x2ca8
    2ca3:	bb 01 00 00 00       	mov    $0x1,%ebx
    2ca8:	48 8d 85 60 fd ff ff 	lea    -0x2a0(%rbp),%rax
    2caf:	48 89 c7             	mov    %rax,%rdi
    2cb2:	e8 29 f1 ff ff       	call   0x1de0
    2cb7:	83 fb 01             	cmp    $0x1,%ebx
    2cba:	e9 99 00 00 00       	jmp    0x2d58
    2cbf:	f3 0f 1e fa          	endbr64 
    2cc3:	48 89 c3             	mov    %rax,%rbx
    2cc6:	48 8d 85 c0 fd ff ff 	lea    -0x240(%rbp),%rax
    2ccd:	48 89 c7             	mov    %rax,%rdi
    2cd0:	e8 0b f1 ff ff       	call   0x1de0
    2cd5:	eb 07                	jmp    0x2cde
    2cd7:	f3 0f 1e fa          	endbr64 
    2cdb:	48 89 c3             	mov    %rax,%rbx
    2cde:	48 8d 85 a0 fd ff ff 	lea    -0x260(%rbp),%rax
    2ce5:	48 89 c7             	mov    %rax,%rdi
    2ce8:	e8 f3 f0 ff ff       	call   0x1de0
    2ced:	eb 07                	jmp    0x2cf6
    2cef:	f3 0f 1e fa          	endbr64 
    2cf3:	48 89 c3             	mov    %rax,%rbx
    2cf6:	48 8d 85 e0 fd ff ff 	lea    -0x220(%rbp),%rax
    2cfd:	48 89 c7             	mov    %rax,%rdi
    2d00:	e8 fb f1 ff ff       	call   0x1f00
    2d05:	eb 07                	jmp    0x2d0e
    2d07:	f3 0f 1e fa          	endbr64 
    2d0b:	48 89 c3             	mov    %rax,%rbx
    2d0e:	48 8d 85 40 fd ff ff 	lea    -0x2c0(%rbp),%rax
    2d15:	48 89 c7             	mov    %rax,%rdi
    2d18:	e8 23 07 00 00       	call   0x3440
    2d1d:	eb 07                	jmp    0x2d26
    2d1f:	f3 0f 1e fa          	endbr64 
    2d23:	48 89 c3             	mov    %rax,%rbx
    2d26:	48 8d 85 80 fd ff ff 	lea    -0x280(%rbp),%rax
    2d2d:	48 89 c7             	mov    %rax,%rdi
    2d30:	e8 ab f0 ff ff       	call   0x1de0
    2d35:	eb 07                	jmp    0x2d3e
    2d37:	f3 0f 1e fa          	endbr64 
    2d3b:	48 89 c3             	mov    %rax,%rbx
    2d3e:	48 8d 85 60 fd ff ff 	lea    -0x2a0(%rbp),%rax
    2d45:	48 89 c7             	mov    %rax,%rdi
    2d48:	e8 93 f0 ff ff       	call   0x1de0
    2d4d:	48 89 d8             	mov    %rbx,%rax
    2d50:	48 89 c7             	mov    %rax,%rdi
    2d53:	e8 98 f0 ff ff       	call   0x1df0
    2d58:	48 8b 45 e8          	mov    -0x18(%rbp),%rax
    2d5c:	64 48 33 04 25 28 00 	xor    %fs:0x28,%rax
    2d63:	00 00 
    2d65:	74 05                	je     0x2d6c
    2d67:	e8 94 f0 ff ff       	call   0x1e00
    2d6c:	48 81 c4 b8 02 00 00 	add    $0x2b8,%rsp
    2d73:	5b                   	pop    %rbx
    2d74:	5d                   	pop    %rbp
    2d75:	c3                   	ret    
    2d76:	f3 0f 1e fa          	endbr64 
    2d7a:	55                   	push   %rbp
    2d7b:	48 89 e5             	mov    %rsp,%rbp
    2d7e:	89 7d fc             	mov    %edi,-0x4(%rbp)
    2d81:	83 7d fc 00          	cmpl   $0x0,-0x4(%rbp)
    2d85:	78 21                	js     0x2da8
    2d87:	48 8d 05 82 62 00 00 	lea    0x6282(%rip),%rax        # 0x9010
    2d8e:	8b 00                	mov    (%rax),%eax
    2d90:	39 45 fc             	cmp    %eax,-0x4(%rbp)
    2d93:	7d 13                	jge    0x2da8
    2d95:	48 8d 05 84 62 00 00 	lea    0x6284(%rip),%rax        # 0x9020
    2d9c:	8b 55 fc             	mov    -0x4(%rbp),%edx
    2d9f:	48 63 d2             	movslq %edx,%rdx
    2da2:	48 8b 04 d0          	mov    (%rax,%rdx,8),%rax
    2da6:	eb 07                	jmp    0x2daf
    2da8:	48 8d 05 21 16 00 00 	lea    0x1621(%rip),%rax        # 0x43d0
    2daf:	5d                   	pop    %rbp
    2db0:	c3                   	ret    
    2db1:	f3 0f 1e fa          	endbr64 
    2db5:	55                   	push   %rbp
    2db6:	48 89 e5             	mov    %rsp,%rbp
    2db9:	41 55                	push   %r13
    2dbb:	41 54                	push   %r12
    2dbd:	53                   	push   %rbx
    2dbe:	48 83 ec 68          	sub    $0x68,%rsp
    2dc2:	89 7d 8c             	mov    %edi,-0x74(%rbp)
    2dc5:	89 75 88             	mov    %esi,-0x78(%rbp)
    2dc8:	83 7d 8c 01          	cmpl   $0x1,-0x74(%rbp)
    2dcc:	0f 85 09 02 00 00    	jne    0x2fdb
    2dd2:	81 7d 88 ff ff 00 00 	cmpl   $0xffff,-0x78(%rbp)
    2dd9:	0f 85 fc 01 00 00    	jne    0x2fdb
    2ddf:	48 8d 3d da 62 00 00 	lea    0x62da(%rip),%rdi        # 0x90c0
    2de6:	e8 25 f1 ff ff       	call   0x1f10
    2deb:	48 8d 15 16 62 00 00 	lea    0x6216(%rip),%rdx        # 0x9008
    2df2:	48 8d 35 c7 62 00 00 	lea    0x62c7(%rip),%rsi        # 0x90c0
    2df9:	48 8b 05 30 60 00 00 	mov    0x6030(%rip),%rax        # 0x8e30
    2e00:	48 89 c7             	mov    %rax,%rdi
    2e03:	e8 18 f1 ff ff       	call   0x1f20
    2e08:	48 8d 45 9d          	lea    -0x63(%rbp),%rax
    2e0c:	48 89 c7             	mov    %rax,%rdi
    2e0f:	e8 5c ef ff ff       	call   0x1d70
    2e14:	48 8d 55 9d          	lea    -0x63(%rbp),%rdx
    2e18:	48 8d 45 a0          	lea    -0x60(%rbp),%rax
    2e1c:	48 8d 35 16 2b 00 00 	lea    0x2b16(%rip),%rsi        # 0x5939
    2e23:	48 89 c7             	mov    %rax,%rdi
    2e26:	e8 55 ef ff ff       	call   0x1d80
    2e2b:	48 8d 45 9e          	lea    -0x62(%rbp),%rax
    2e2f:	48 89 c7             	mov    %rax,%rdi
    2e32:	e8 39 ef ff ff       	call   0x1d70
    2e37:	48 8d 45 9e          	lea    -0x62(%rbp),%rax
    2e3b:	48 8d 55 a0          	lea    -0x60(%rbp),%rdx
    2e3f:	48 8d 4a 20          	lea    0x20(%rdx),%rcx
    2e43:	48 89 c2             	mov    %rax,%rdx
    2e46:	48 8d 35 f1 2a 00 00 	lea    0x2af1(%rip),%rsi        # 0x593e
    2e4d:	48 89 cf             	mov    %rcx,%rdi
    2e50:	e8 2b ef ff ff       	call   0x1d80
    2e55:	48 8d 45 a0          	lea    -0x60(%rbp),%rax
    2e59:	49 89 c4             	mov    %rax,%r12
    2e5c:	41 bd 02 00 00 00    	mov    $0x2,%r13d
    2e62:	48 8d 45 9f          	lea    -0x61(%rbp),%rax
    2e66:	48 89 c7             	mov    %rax,%rdi
    2e69:	e8 84 02 00 00       	call   0x30f2
    2e6e:	48 8d 45 9f          	lea    -0x61(%rbp),%rax
    2e72:	4c 89 e6             	mov    %r12,%rsi
    2e75:	4c 89 ef             	mov    %r13,%rdi
    2e78:	4c 89 e1             	mov    %r12,%rcx
    2e7b:	4c 89 eb             	mov    %r13,%rbx
    2e7e:	48 89 da             	mov    %rbx,%rdx
    2e81:	48 89 c1             	mov    %rax,%rcx
    2e84:	48 8d 05 f5 61 00 00 	lea    0x61f5(%rip),%rax        # 0x9080
    2e8b:	48 89 c7             	mov    %rax,%rdi
    2e8e:	e8 9f 02 00 00       	call   0x3132
    2e93:	48 8d 45 9f          	lea    -0x61(%rbp),%rax
    2e97:	48 89 c7             	mov    %rax,%rdi
    2e9a:	e8 73 02 00 00       	call   0x3112
    2e9f:	48 8d 5d a0          	lea    -0x60(%rbp),%rbx
    2ea3:	48 83 c3 40          	add    $0x40,%rbx
    2ea7:	48 8d 45 a0          	lea    -0x60(%rbp),%rax
    2eab:	48 39 c3             	cmp    %rax,%rbx
    2eae:	74 0e                	je     0x2ebe
    2eb0:	48 83 eb 20          	sub    $0x20,%rbx
    2eb4:	48 89 df             	mov    %rbx,%rdi
    2eb7:	e8 24 ef ff ff       	call   0x1de0
    2ebc:	eb e9                	jmp    0x2ea7
    2ebe:	48 8d 45 9e          	lea    -0x62(%rbp),%rax
    2ec2:	48 89 c7             	mov    %rax,%rdi
    2ec5:	e8 c6 ee ff ff       	call   0x1d90
    2eca:	48 8d 45 9d          	lea    -0x63(%rbp),%rax
    2ece:	48 89 c7             	mov    %rax,%rdi
    2ed1:	e8 ba ee ff ff       	call   0x1d90
    2ed6:	48 8d 15 2b 61 00 00 	lea    0x612b(%rip),%rdx        # 0x9008
    2edd:	48 8d 05 9c 61 00 00 	lea    0x619c(%rip),%rax        # 0x9080
    2ee4:	48 89 c6             	mov    %rax,%rsi
    2ee7:	48 8d 05 b2 12 00 00 	lea    0x12b2(%rip),%rax        # 0x41a0
    2eee:	48 89 c7             	mov    %rax,%rdi
    2ef1:	e8 2a f0 ff ff       	call   0x1f20
    2ef6:	48 8d 45 a0          	lea    -0x60(%rbp),%rax
    2efa:	48 89 c7             	mov    %rax,%rdi
    2efd:	e8 6e ee ff ff       	call   0x1d70
    2f02:	48 8d 45 a0          	lea    -0x60(%rbp),%rax
    2f06:	48 89 c2             	mov    %rax,%rdx
    2f09:	48 8d 35 0e 29 00 00 	lea    0x290e(%rip),%rsi        # 0x581e
    2f10:	48 8d 05 89 61 00 00 	lea    0x6189(%rip),%rax        # 0x90a0
    2f17:	48 89 c7             	mov    %rax,%rdi
    2f1a:	e8 61 ee ff ff       	call   0x1d80
    2f1f:	48 8d 45 a0          	lea    -0x60(%rbp),%rax
    2f23:	48 89 c7             	mov    %rax,%rdi
    2f26:	e8 65 ee ff ff       	call   0x1d90
    2f2b:	48 8d 15 d6 60 00 00 	lea    0x60d6(%rip),%rdx        # 0x9008
    2f32:	48 8d 05 67 61 00 00 	lea    0x6167(%rip),%rax        # 0x90a0
    2f39:	48 89 c6             	mov    %rax,%rsi
    2f3c:	48 8b 05 f5 5e 00 00 	mov    0x5ef5(%rip),%rax        # 0x8e38
    2f43:	48 89 c7             	mov    %rax,%rdi
    2f46:	e8 d5 ef ff ff       	call   0x1f20
    2f4b:	e9 8b 00 00 00       	jmp    0x2fdb
    2f50:	f3 0f 1e fa          	endbr64 
    2f54:	48 89 c3             	mov    %rax,%rbx
    2f57:	48 8d 45 9f          	lea    -0x61(%rbp),%rax
    2f5b:	48 89 c7             	mov    %rax,%rdi
    2f5e:	e8 af 01 00 00       	call   0x3112
    2f63:	49 89 dc             	mov    %rbx,%r12
    2f66:	48 8d 5d a0          	lea    -0x60(%rbp),%rbx
    2f6a:	48 83 c3 40          	add    $0x40,%rbx
    2f6e:	48 8d 45 a0          	lea    -0x60(%rbp),%rax
    2f72:	48 39 c3             	cmp    %rax,%rbx
    2f75:	74 0e                	je     0x2f85
    2f77:	48 83 eb 20          	sub    $0x20,%rbx
    2f7b:	48 89 df             	mov    %rbx,%rdi
    2f7e:	e8 5d ee ff ff       	call   0x1de0
    2f83:	eb e9                	jmp    0x2f6e
    2f85:	4c 89 e3             	mov    %r12,%rbx
    2f88:	eb 07                	jmp    0x2f91
    2f8a:	f3 0f 1e fa          	endbr64 
    2f8e:	48 89 c3             	mov    %rax,%rbx
    2f91:	48 8d 45 9e          	lea    -0x62(%rbp),%rax
    2f95:	48 89 c7             	mov    %rax,%rdi
    2f98:	e8 f3 ed ff ff       	call   0x1d90
    2f9d:	eb 07                	jmp    0x2fa6
    2f9f:	f3 0f 1e fa          	endbr64 
    2fa3:	48 89 c3             	mov    %rax,%rbx
    2fa6:	48 8d 45 9d          	lea    -0x63(%rbp),%rax
    2faa:	48 89 c7             	mov    %rax,%rdi
    2fad:	e8 de ed ff ff       	call   0x1d90
    2fb2:	48 89 d8             	mov    %rbx,%rax
    2fb5:	48 89 c7             	mov    %rax,%rdi
    2fb8:	e8 33 ee ff ff       	call   0x1df0
    2fbd:	f3 0f 1e fa          	endbr64 
    2fc1:	48 89 c3             	mov    %rax,%rbx
    2fc4:	48 8d 45 a0          	lea    -0x60(%rbp),%rax
    2fc8:	48 89 c7             	mov    %rax,%rdi
    2fcb:	e8 c0 ed ff ff       	call   0x1d90
    2fd0:	48 89 d8             	mov    %rbx,%rax
    2fd3:	48 89 c7             	mov    %rax,%rdi
    2fd6:	e8 15 ee ff ff       	call   0x1df0
    2fdb:	48 83 c4 68          	add    $0x68,%rsp
    2fdf:	5b                   	pop    %rbx
    2fe0:	41 5c                	pop    %r12
    2fe2:	41 5d                	pop    %r13
    2fe4:	5d                   	pop    %rbp
    2fe5:	c3                   	ret    
    2fe6:	f3 0f 1e fa          	endbr64 
    2fea:	55                   	push   %rbp
    2feb:	48 89 e5             	mov    %rsp,%rbp
    2fee:	be ff ff 00 00       	mov    $0xffff,%esi
    2ff3:	bf 01 00 00 00       	mov    $0x1,%edi
    2ff8:	e8 b4 fd ff ff       	call   0x2db1
    2ffd:	5d                   	pop    %rbp
    2ffe:	c3                   	ret    
    2fff:	f3 0f 1e fa          	endbr64 
    3003:	55                   	push   %rbp
    3004:	48 89 e5             	mov    %rsp,%rbp
    3007:	48 89 7d f8          	mov    %rdi,-0x8(%rbp)
    300b:	48 89 75 f0          	mov    %rsi,-0x10(%rbp)
    300f:	48 8b 45 f0          	mov    -0x10(%rbp),%rax
    3013:	5d                   	pop    %rbp
    3014:	c3                   	ret    
    3015:	f3 0f 1e fa          	endbr64 
    3019:	55                   	push   %rbp
    301a:	48 89 e5             	mov    %rsp,%rbp
    301d:	48 89 7d f8          	mov    %rdi,-0x8(%rbp)
    3021:	48 89 75 f0          	mov    %rsi,-0x10(%rbp)
    3025:	90                   	nop
    3026:	5d                   	pop    %rbp
    3027:	c3                   	ret    
    3028:	f3 0f 1e fa          	endbr64 
    302c:	55                   	push   %rbp
    302d:	48 89 e5             	mov    %rsp,%rbp
    3030:	48 83 ec 20          	sub    $0x20,%rsp
    3034:	48 89 7d f8          	mov    %rdi,-0x8(%rbp)
    3038:	48 89 75 f0          	mov    %rsi,-0x10(%rbp)
    303c:	48 89 55 e8          	mov    %rdx,-0x18(%rbp)
    3040:	48 83 7d e8 00       	cmpq   $0x0,-0x18(%rbp)
    3045:	75 07                	jne    0x304e
    3047:	b8 00 00 00 00       	mov    $0x0,%eax
    304c:	eb 18                	jmp    0x3066
    304e:	48 8b 55 e8          	mov    -0x18(%rbp),%rdx
    3052:	48 8b 4d f0          	mov    -0x10(%rbp),%rcx
    3056:	48 8b 45 f8          	mov    -0x8(%rbp),%rax
    305a:	48 89 ce             	mov    %rcx,%rsi
    305d:	48 89 c7             	mov    %rax,%rdi
    3060:	e8 cb ee ff ff       	call   0x1f30
    3065:	90                   	nop
    3066:	c9                   	leave  
    3067:	c3                   	ret    
    3068:	f3 0f 1e fa          	endbr64 
    306c:	55                   	push   %rbp
    306d:	48 89 e5             	mov    %rsp,%rbp
    3070:	48 83 ec 10          	sub    $0x10,%rsp
    3074:	48 89 7d f8          	mov    %rdi,-0x8(%rbp)
    3078:	48 8b 45 f8          	mov    -0x8(%rbp),%rax
    307c:	48 89 c7             	mov    %rax,%rdi
    307f:	e8 04 04 00 00       	call   0x3488
    3084:	90                   	nop
    3085:	c9                   	leave  
    3086:	c3                   	ret    
    3087:	f3 0f 1e fa          	endbr64 
    308b:	55                   	push   %rbp
    308c:	48 89 e5             	mov    %rsp,%rbp
    308f:	53                   	push   %rbx
    3090:	48 83 ec 28          	sub    $0x28,%rsp
    3094:	48 89 7d e8          	mov    %rdi,-0x18(%rbp)
    3098:	48 89 75 e0          	mov    %rsi,-0x20(%rbp)
    309c:	48 89 55 d8          	mov    %rdx,-0x28(%rbp)
    30a0:	48 8b 55 e0          	mov    -0x20(%rbp),%rdx
    30a4:	48 8b 45 e8          	mov    -0x18(%rbp),%rax
    30a8:	48 89 d6             	mov    %rdx,%rsi
    30ab:	48 89 c7             	mov    %rax,%rdi
    30ae:	e8 fd ed ff ff       	call   0x1eb0
    30b3:	48 8b 55 d8          	mov    -0x28(%rbp),%rdx
    30b7:	48 8b 45 e8          	mov    -0x18(%rbp),%rax
    30bb:	48 89 d6             	mov    %rdx,%rsi
    30be:	48 89 c7             	mov    %rax,%rdi
    30c1:	e8 7a ee ff ff       	call   0x1f40
    30c6:	eb 1e                	jmp    0x30e6
    30c8:	f3 0f 1e fa          	endbr64 
    30cc:	48 89 c3             	mov    %rax,%rbx
    30cf:	48 8b 45 e8          	mov    -0x18(%rbp),%rax
    30d3:	48 89 c7             	mov    %rax,%rdi
    30d6:	e8 05 ed ff ff       	call   0x1de0
    30db:	48 89 d8             	mov    %rbx,%rax
    30de:	48 89 c7             	mov    %rax,%rdi
    30e1:	e8 0a ed ff ff       	call   0x1df0
    30e6:	48 8b 45 e8          	mov    -0x18(%rbp),%rax
    30ea:	48 83 c4 28          	add    $0x28,%rsp
    30ee:	5b                   	pop    %rbx
    30ef:	5d                   	pop    %rbp
    30f0:	c3                   	ret    
    30f1:	90                   	nop
    30f2:	f3 0f 1e fa          	endbr64 
    30f6:	55                   	push   %rbp
    30f7:	48 89 e5             	mov    %rsp,%rbp
    30fa:	48 83 ec 10          	sub    $0x10,%rsp
    30fe:	48 89 7d f8          	mov    %rdi,-0x8(%rbp)
    3102:	48 8b 45 f8          	mov    -0x8(%rbp),%rax
    3106:	48 89 c7             	mov    %rax,%rdi
    3109:	e8 3e 04 00 00       	call   0x354c
    310e:	90                   	nop
    310f:	c9                   	leave  
    3110:	c3                   	ret    
    3111:	90                   	nop
    3112:	f3 0f 1e fa          	endbr64 
    3116:	55                   	push   %rbp
    3117:	48 89 e5             	mov    %rsp,%rbp
    311a:	48 83 ec 10          	sub    $0x10,%rsp
    311e:	48 89 7d f8          	mov    %rdi,-0x8(%rbp)
    3122:	48 8b 45 f8          	mov    -0x8(%rbp),%rax
    3126:	48 89 c7             	mov    %rax,%rdi
    3129:	e8 2e 04 00 00       	call   0x355c
    312e:	90                   	nop
    312f:	c9                   	leave  
    3130:	c3                   	ret    
    3131:	90                   	nop
    3132:	f3 0f 1e fa          	endbr64 
    3136:	55                   	push   %rbp
    3137:	48 89 e5             	mov    %rsp,%rbp
    313a:	53                   	push   %rbx
    313b:	48 83 ec 38          	sub    $0x38,%rsp
    313f:	48 89 7d d8          	mov    %rdi,-0x28(%rbp)
    3143:	48 89 f0             	mov    %rsi,%rax
    3146:	48 89 d6             	mov    %rdx,%rsi
    3149:	48 89 f2             	mov    %rsi,%rdx
    314c:	48 89 45 c0          	mov    %rax,-0x40(%rbp)
    3150:	48 89 55 c8          	mov    %rdx,-0x38(%rbp)
    3154:	48 89 4d d0          	mov    %rcx,-0x30(%rbp)
    3158:	48 8b 45 d8          	mov    -0x28(%rbp),%rax
    315c:	48 8b 55 d0          	mov    -0x30(%rbp),%rdx
    3160:	48 89 d6             	mov    %rdx,%rsi
    3163:	48 89 c7             	mov    %rax,%rdi
    3166:	e8 21 04 00 00       	call   0x358c
    316b:	48 8d 45 c0          	lea    -0x40(%rbp),%rax
    316f:	48 89 c7             	mov    %rax,%rdi
    3172:	e8 a7 04 00 00       	call   0x361e
    3177:	48 89 c3             	mov    %rax,%rbx
    317a:	48 8d 45 c0          	lea    -0x40(%rbp),%rax
    317e:	48 89 c7             	mov    %rax,%rdi
    3181:	e8 82 04 00 00       	call   0x3608
    3186:	48 89 c1             	mov    %rax,%rcx
    3189:	48 8b 45 d8          	mov    -0x28(%rbp),%rax
    318d:	48 89 da             	mov    %rbx,%rdx
    3190:	48 89 ce             	mov    %rcx,%rsi
    3193:	48 89 c7             	mov    %rax,%rdi
    3196:	e8 bd 04 00 00       	call   0x3658
    319b:	eb 1e                	jmp    0x31bb
    319d:	f3 0f 1e fa          	endbr64 
    31a1:	48 89 c3             	mov    %rax,%rbx
    31a4:	48 8b 45 d8          	mov    -0x28(%rbp),%rax
    31a8:	48 89 c7             	mov    %rax,%rdi
    31ab:	e8 06 04 00 00       	call   0x35b6
    31b0:	48 89 d8             	mov    %rbx,%rax
    31b3:	48 89 c7             	mov    %rax,%rdi
    31b6:	e8 35 ec ff ff       	call   0x1df0
    31bb:	48 83 c4 38          	add    $0x38,%rsp
    31bf:	5b                   	pop    %rbx
    31c0:	5d                   	pop    %rbp
    31c1:	c3                   	ret    
    31c2:	f3 0f 1e fa          	endbr64 
    31c6:	55                   	push   %rbp
    31c7:	48 89 e5             	mov    %rsp,%rbp
    31ca:	48 83 ec 20          	sub    $0x20,%rsp
    31ce:	48 89 7d e8          	mov    %rdi,-0x18(%rbp)
    31d2:	48 8b 45 e8          	mov    -0x18(%rbp),%rax
    31d6:	48 8b 00             	mov    (%rax),%rax
    31d9:	48 89 45 f0          	mov    %rax,-0x10(%rbp)
    31dd:	48 8d 55 f0          	lea    -0x10(%rbp),%rdx
    31e1:	48 8d 45 f8          	lea    -0x8(%rbp),%rax
    31e5:	48 89 d6             	mov    %rdx,%rsi
    31e8:	48 89 c7             	mov    %rax,%rdi
    31eb:	e8 1c 05 00 00       	call   0x370c
    31f0:	48 8b 45 f8          	mov    -0x8(%rbp),%rax
    31f4:	c9                   	leave  
    31f5:	c3                   	ret    
    31f6:	f3 0f 1e fa          	endbr64 
    31fa:	55                   	push   %rbp
    31fb:	48 89 e5             	mov    %rsp,%rbp
    31fe:	48 83 ec 20          	sub    $0x20,%rsp
    3202:	48 89 7d e8          	mov    %rdi,-0x18(%rbp)
    3206:	48 8b 45 e8          	mov    -0x18(%rbp),%rax
    320a:	48 8b 40 08          	mov    0x8(%rax),%rax
    320e:	48 89 45 f0          	mov    %rax,-0x10(%rbp)
    3212:	48 8d 55 f0          	lea    -0x10(%rbp),%rdx
    3216:	48 8d 45 f8          	lea    -0x8(%rbp),%rax
    321a:	48 89 d6             	mov    %rdx,%rsi
    321d:	48 89 c7             	mov    %rax,%rdi
    3220:	e8 e7 04 00 00       	call   0x370c
    3225:	48 8b 45 f8          	mov    -0x8(%rbp),%rax
    3229:	c9                   	leave  
    322a:	c3                   	ret    
    322b:	f3 0f 1e fa          	endbr64 
    322f:	55                   	push   %rbp
    3230:	48 89 e5             	mov    %rsp,%rbp
    3233:	48 83 ec 20          	sub    $0x20,%rsp
    3237:	48 89 7d f8          	mov    %rdi,-0x8(%rbp)
    323b:	48 89 75 f0          	mov    %rsi,-0x10(%rbp)
    323f:	48 89 55 e8          	mov    %rdx,-0x18(%rbp)
    3243:	48 8b 45 e8          	mov    -0x18(%rbp),%rax
    3247:	48 89 c7             	mov    %rax,%rdi
    324a:	e8 de 04 00 00       	call   0x372d
    324f:	48 89 c2             	mov    %rax,%rdx
    3252:	48 8b 4d f0          	mov    -0x10(%rbp),%rcx
    3256:	48 8b 45 f8          	mov    -0x8(%rbp),%rax
    325a:	48 89 ce             	mov    %rcx,%rsi
    325d:	48 89 c7             	mov    %rax,%rdi
    3260:	e8 f1 04 00 00       	call   0x3756
    3265:	c9                   	leave  
    3266:	c3                   	ret    
    3267:	f3 0f 1e fa          	endbr64 
    326b:	55                   	push   %rbp
    326c:	48 89 e5             	mov    %rsp,%rbp
    326f:	53                   	push   %rbx
    3270:	48 83 ec 18          	sub    $0x18,%rsp
    3274:	48 89 7d e8          	mov    %rdi,-0x18(%rbp)
    3278:	48 89 75 e0          	mov    %rsi,-0x20(%rbp)
    327c:	48 8b 45 e8          	mov    -0x18(%rbp),%rax
    3280:	48 89 c7             	mov    %rax,%rdi
    3283:	e8 0c 05 00 00       	call   0x3794
    3288:	48 8b 18             	mov    (%rax),%rbx
    328b:	48 8b 45 e0          	mov    -0x20(%rbp),%rax
    328f:	48 89 c7             	mov    %rax,%rdi
    3292:	e8 fd 04 00 00       	call   0x3794
    3297:	48 8b 00             	mov    (%rax),%rax
    329a:	48 39 c3             	cmp    %rax,%rbx
    329d:	0f 95 c0             	setne  %al
    32a0:	48 83 c4 18          	add    $0x18,%rsp
    32a4:	5b                   	pop    %rbx
    32a5:	5d                   	pop    %rbp
    32a6:	c3                   	ret    
    32a7:	f3 0f 1e fa          	endbr64 
    32ab:	55                   	push   %rbp
    32ac:	48 89 e5             	mov    %rsp,%rbp
    32af:	53                   	push   %rbx
    32b0:	48 83 ec 18          	sub    $0x18,%rsp
    32b4:	48 89 7d e8          	mov    %rdi,-0x18(%rbp)
    32b8:	48 89 75 e0          	mov    %rsi,-0x20(%rbp)
    32bc:	48 8b 45 e8          	mov    -0x18(%rbp),%rax
    32c0:	48 89 c7             	mov    %rax,%rdi
    32c3:	e8 de 04 00 00       	call   0x37a6
    32c8:	48 8b 18             	mov    (%rax),%rbx
    32cb:	48 8b 45 e0          	mov    -0x20(%rbp),%rax
    32cf:	48 89 c7             	mov    %rax,%rdi
    32d2:	e8 cf 04 00 00       	call   0x37a6
    32d7:	48 8b 00             	mov    (%rax),%rax
    32da:	48 39 c3             	cmp    %rax,%rbx
    32dd:	0f 95 c0             	setne  %al
    32e0:	48 83 c4 18          	add    $0x18,%rsp
    32e4:	5b                   	pop    %rbx
    32e5:	5d                   	pop    %rbp
    32e6:	c3                   	ret    
    32e7:	90                   	nop
    32e8:	f3 0f 1e fa          	endbr64 
    32ec:	55                   	push   %rbp
    32ed:	48 89 e5             	mov    %rsp,%rbp
    32f0:	48 89 7d f8          	mov    %rdi,-0x8(%rbp)
    32f4:	48 8b 45 f8          	mov    -0x8(%rbp),%rax
    32f8:	48 8b 00             	mov    (%rax),%rax
    32fb:	48 8d 50 01          	lea    0x1(%rax),%rdx
    32ff:	48 8b 45 f8          	mov    -0x8(%rbp),%rax
    3303:	48 89 10             	mov    %rdx,(%rax)
    3306:	48 8b 45 f8          	mov    -0x8(%rbp),%rax
    330a:	5d                   	pop    %rbp
    330b:	c3                   	ret    
    330c:	f3 0f 1e fa          	endbr64 
    3310:	55                   	push   %rbp
    3311:	48 89 e5             	mov    %rsp,%rbp
    3314:	48 89 7d f8          	mov    %rdi,-0x8(%rbp)
    3318:	48 8b 45 f8          	mov    -0x8(%rbp),%rax
    331c:	48 8b 00             	mov    (%rax),%rax
    331f:	5d                   	pop    %rbp
    3320:	c3                   	ret    
    3321:	f3 0f 1e fa          	endbr64 
    3325:	55                   	push   %rbp
    3326:	48 89 e5             	mov    %rsp,%rbp
    3329:	53                   	push   %rbx
    332a:	48 83 ec 18          	sub    $0x18,%rsp
    332e:	48 89 7d e8          	mov    %rdi,-0x18(%rbp)
    3332:	48 89 75 e0          	mov    %rsi,-0x20(%rbp)
    3336:	48 8b 45 e8          	mov    -0x18(%rbp),%rax
    333a:	48 89 c7             	mov    %rax,%rdi
    333d:	e8 76 04 00 00       	call   0x37b8
    3342:	48 8b 18             	mov    (%rax),%rbx
    3345:	48 8b 45 e0          	mov    -0x20(%rbp),%rax
    3349:	48 89 c7             	mov    %rax,%rdi
    334c:	e8 67 04 00 00       	call   0x37b8
    3351:	48 8b 00             	mov    (%rax),%rax
    3354:	48 39 c3             	cmp    %rax,%rbx
    3357:	0f 95 c0             	setne  %al
    335a:	48 83 c4 18          	add    $0x18,%rsp
    335e:	5b                   	pop    %rbx
    335f:	5d                   	pop    %rbp
    3360:	c3                   	ret    
    3361:	90                   	nop
    3362:	f3 0f 1e fa          	endbr64 
    3366:	55                   	push   %rbp
    3367:	48 89 e5             	mov    %rsp,%rbp
    336a:	48 89 7d f8          	mov    %rdi,-0x8(%rbp)
    336e:	48 8b 45 f8          	mov    -0x8(%rbp),%rax
    3372:	48 8b 00             	mov    (%rax),%rax
    3375:	48 8d 50 01          	lea    0x1(%rax),%rdx
    3379:	48 8b 45 f8          	mov    -0x8(%rbp),%rax
    337d:	48 89 10             	mov    %rdx,(%rax)
    3380:	48 8b 45 f8          	mov    -0x8(%rbp),%rax
    3384:	5d                   	pop    %rbp
    3385:	c3                   	ret    
    3386:	f3 0f 1e fa          	endbr64 
    338a:	55                   	push   %rbp
    338b:	48 89 e5             	mov    %rsp,%rbp
    338e:	48 89 7d f8          	mov    %rdi,-0x8(%rbp)
    3392:	48 8b 45 f8          	mov    -0x8(%rbp),%rax
    3396:	48 8b 00             	mov    (%rax),%rax
    3399:	5d                   	pop    %rbp
    339a:	c3                   	ret    
    339b:	f3 0f 1e fa          	endbr64 
    339f:	55                   	push   %rbp
    33a0:	48 89 e5             	mov    %rsp,%rbp
    33a3:	48 83 ec 10          	sub    $0x10,%rsp
    33a7:	48 89 7d f8          	mov    %rdi,-0x8(%rbp)
    33ab:	48 89 75 f0          	mov    %rsi,-0x10(%rbp)
    33af:	48 8b 55 f0          	mov    -0x10(%rbp),%rdx
    33b3:	48 8b 45 f8          	mov    -0x8(%rbp),%rax
    33b7:	48 89 d6             	mov    %rdx,%rsi
    33ba:	48 89 c7             	mov    %rax,%rdi
    33bd:	e8 8e eb ff ff       	call   0x1f50
    33c2:	85 c0                	test   %eax,%eax
    33c4:	0f 94 c0             	sete   %al
    33c7:	c9                   	leave  
    33c8:	c3                   	ret    
    33c9:	f3 0f 1e fa          	endbr64 
    33cd:	55                   	push   %rbp
    33ce:	48 89 e5             	mov    %rsp,%rbp
    33d1:	48 83 ec 10          	sub    $0x10,%rsp
    33d5:	48 89 7d f8          	mov    %rdi,-0x8(%rbp)
    33d9:	48 89 75 f0          	mov    %rsi,-0x10(%rbp)
    33dd:	48 8b 55 f0          	mov    -0x10(%rbp),%rdx
    33e1:	48 8b 45 f8          	mov    -0x8(%rbp),%rax
    33e5:	48 89 d6             	mov    %rdx,%rsi
    33e8:	48 89 c7             	mov    %rax,%rdi
    33eb:	e8 ab ff ff ff       	call   0x339b
    33f0:	83 f0 01             	xor    $0x1,%eax
    33f3:	c9                   	leave  
    33f4:	c3                   	ret    
    33f5:	f3 0f 1e fa          	endbr64 
    33f9:	55                   	push   %rbp
    33fa:	48 89 e5             	mov    %rsp,%rbp
    33fd:	48 83 ec 20          	sub    $0x20,%rsp
    3401:	48 89 7d f8          	mov    %rdi,-0x8(%rbp)
    3405:	48 89 75 f0          	mov    %rsi,-0x10(%rbp)
    3409:	48 89 55 e8          	mov    %rdx,-0x18(%rbp)
    340d:	48 8b 55 e8          	mov    -0x18(%rbp),%rdx
    3411:	48 8b 45 f0          	mov    -0x10(%rbp),%rax
    3415:	48 89 d6             	mov    %rdx,%rsi
    3418:	48 89 c7             	mov    %rax,%rdi
    341b:	e8 40 eb ff ff       	call   0x1f60
    3420:	48 89 c7             	mov    %rax,%rdi
    3423:	e8 11 01 00 00       	call   0x3539
    3428:	48 89 c2             	mov    %rax,%rdx
    342b:	48 8b 45 f8          	mov    -0x8(%rbp),%rax
    342f:	48 89 d6             	mov    %rdx,%rsi
    3432:	48 89 c7             	mov    %rax,%rdi
    3435:	e8 36 eb ff ff       	call   0x1f70
    343a:	48 8b 45 f8          	mov    -0x8(%rbp),%rax
    343e:	c9                   	leave  
    343f:	c3                   	ret    
    3440:	f3 0f 1e fa          	endbr64 
    3444:	55                   	push   %rbp
    3445:	48 89 e5             	mov    %rsp,%rbp
    3448:	48 83 ec 10          	sub    $0x10,%rsp
    344c:	48 89 7d f8          	mov    %rdi,-0x8(%rbp)
    3450:	48 8b 45 f8          	mov    -0x8(%rbp),%rax
    3454:	48 89 c7             	mov    %rax,%rdi
    3457:	e8 6e 03 00 00       	call   0x37ca
    345c:	48 89 c2             	mov    %rax,%rdx
    345f:	48 8b 45 f8          	mov    -0x8(%rbp),%rax
    3463:	48 8b 48 08          	mov    0x8(%rax),%rcx
    3467:	48 8b 45 f8          	mov    -0x8(%rbp),%rax
    346b:	48 8b 00             	mov    (%rax),%rax
    346e:	48 89 ce             	mov    %rcx,%rsi
    3471:	48 89 c7             	mov    %rax,%rdi
    3474:	e8 63 03 00 00       	call   0x37dc
    3479:	48 8b 45 f8          	mov    -0x8(%rbp),%rax
    347d:	48 89 c7             	mov    %rax,%rdi
    3480:	e8 23 00 00 00       	call   0x34a8
    3485:	90                   	nop
    3486:	c9                   	leave  
    3487:	c3                   	ret    
    3488:	f3 0f 1e fa          	endbr64 
    348c:	55                   	push   %rbp
    348d:	48 89 e5             	mov    %rsp,%rbp
    3490:	48 83 ec 10          	sub    $0x10,%rsp
    3494:	48 89 7d f8          	mov    %rdi,-0x8(%rbp)
    3498:	48 8b 45 f8          	mov    -0x8(%rbp),%rax
    349c:	48 89 c7             	mov    %rax,%rdi
    349f:	e8 66 03 00 00       	call   0x380a
    34a4:	90                   	nop
    34a5:	c9                   	leave  
    34a6:	c3                   	ret    
    34a7:	90                   	nop
    34a8:	f3 0f 1e fa          	endbr64 
    34ac:	55                   	push   %rbp
    34ad:	48 89 e5             	mov    %rsp,%rbp
    34b0:	48 83 ec 10          	sub    $0x10,%rsp
    34b4:	48 89 7d f8          	mov    %rdi,-0x8(%rbp)
    34b8:	48 8b 45 f8          	mov    -0x8(%rbp),%rax
    34bc:	48 8b 50 10          	mov    0x10(%rax),%rdx
    34c0:	48 8b 45 f8          	mov    -0x8(%rbp),%rax
    34c4:	48 8b 00             	mov    (%rax),%rax
    34c7:	48 29 c2             	sub    %rax,%rdx
    34ca:	48 89 d0             	mov    %rdx,%rax
    34cd:	48 89 c2             	mov    %rax,%rdx
    34d0:	48 8b 45 f8          	mov    -0x8(%rbp),%rax
    34d4:	48 8b 08             	mov    (%rax),%rcx
    34d7:	48 8b 45 f8          	mov    -0x8(%rbp),%rax
    34db:	48 89 ce             	mov    %rcx,%rsi
    34de:	48 89 c7             	mov    %rax,%rdi
    34e1:	e8 34 03 00 00       	call   0x381a
    34e6:	48 8b 45 f8          	mov    -0x8(%rbp),%rax
    34ea:	48 89 c7             	mov    %rax,%rdi
    34ed:	e8 76 fb ff ff       	call   0x3068
    34f2:	90                   	nop
    34f3:	c9                   	leave  
    34f4:	c3                   	ret    
    34f5:	90                   	nop
    34f6:	f3 0f 1e fa          	endbr64 
    34fa:	55                   	push   %rbp
    34fb:	48 89 e5             	mov    %rsp,%rbp
    34fe:	48 89 7d f8          	mov    %rdi,-0x8(%rbp)
    3502:	48 89 75 f0          	mov    %rsi,-0x10(%rbp)
    3506:	48 8b 45 f8          	mov    -0x8(%rbp),%rax
    350a:	48 8b 10             	mov    (%rax),%rdx
    350d:	48 8b 45 f0          	mov    -0x10(%rbp),%rax
    3511:	48 01 d0             	add    %rdx,%rax
    3514:	5d                   	pop    %rbp
    3515:	c3                   	ret    
    3516:	f3 0f 1e fa          	endbr64 
    351a:	55                   	push   %rbp
    351b:	48 89 e5             	mov    %rsp,%rbp
    351e:	48 89 7d f8          	mov    %rdi,-0x8(%rbp)
    3522:	48 8b 45 f8          	mov    -0x8(%rbp),%rax
    3526:	48 8b 50 08          	mov    0x8(%rax),%rdx
    352a:	48 8b 45 f8          	mov    -0x8(%rbp),%rax
    352e:	48 8b 00             	mov    (%rax),%rax
    3531:	48 29 c2             	sub    %rax,%rdx
    3534:	48 89 d0             	mov    %rdx,%rax
    3537:	5d                   	pop    %rbp
    3538:	c3                   	ret    
    3539:	f3 0f 1e fa          	endbr64 
    353d:	55                   	push   %rbp
    353e:	48 89 e5             	mov    %rsp,%rbp
    3541:	48 89 7d f8          	mov    %rdi,-0x8(%rbp)
    3545:	48 8b 45 f8          	mov    -0x8(%rbp),%rax
    3549:	5d                   	pop    %rbp
    354a:	c3                   	ret    
    354b:	90                   	nop
    354c:	f3 0f 1e fa          	endbr64 
    3550:	55                   	push   %rbp
    3551:	48 89 e5             	mov    %rsp,%rbp
    3554:	48 89 7d f8          	mov    %rdi,-0x8(%rbp)
    3558:	90                   	nop
    3559:	5d                   	pop    %rbp
    355a:	c3                   	ret    
    355b:	90                   	nop
    355c:	f3 0f 1e fa          	endbr64 
    3560:	55                   	push   %rbp
    3561:	48 89 e5             	mov    %rsp,%rbp
    3564:	48 89 7d f8          	mov    %rdi,-0x8(%rbp)
    3568:	90                   	nop
    3569:	5d                   	pop    %rbp
    356a:	c3                   	ret    
    356b:	90                   	nop
    356c:	f3 0f 1e fa          	endbr64 
    3570:	55                   	push   %rbp
    3571:	48 89 e5             	mov    %rsp,%rbp
    3574:	48 83 ec 10          	sub    $0x10,%rsp
    3578:	48 89 7d f8          	mov    %rdi,-0x8(%rbp)
    357c:	48 8b 45 f8          	mov    -0x8(%rbp),%rax
    3580:	48 89 c7             	mov    %rax,%rdi
    3583:	e8 8a fb ff ff       	call   0x3112
    3588:	90                   	nop
    3589:	c9                   	leave  
    358a:	c3                   	ret    
    358b:	90                   	nop
    358c:	f3 0f 1e fa          	endbr64 
    3590:	55                   	push   %rbp
    3591:	48 89 e5             	mov    %rsp,%rbp
    3594:	48 83 ec 10          	sub    $0x10,%rsp
    3598:	48 89 7d f8          	mov    %rdi,-0x8(%rbp)
    359c:	48 89 75 f0          	mov    %rsi,-0x10(%rbp)
    35a0:	48 8b 45 f8          	mov    -0x8(%rbp),%rax
    35a4:	48 8b 55 f0          	mov    -0x10(%rbp),%rdx
    35a8:	48 89 d6             	mov    %rdx,%rsi
    35ab:	48 89 c7             	mov    %rax,%rdi
    35ae:	e8 a1 02 00 00       	call   0x3854
    35b3:	90                   	nop
    35b4:	c9                   	leave  
    35b5:	c3                   	ret    
    35b6:	f3 0f 1e fa          	endbr64 
    35ba:	55                   	push   %rbp
    35bb:	48 89 e5             	mov    %rsp,%rbp
    35be:	48 83 ec 10          	sub    $0x10,%rsp
    35c2:	48 89 7d f8          	mov    %rdi,-0x8(%rbp)
    35c6:	48 8b 45 f8          	mov    -0x8(%rbp),%rax
    35ca:	48 8b 50 10          	mov    0x10(%rax),%rdx
    35ce:	48 8b 45 f8          	mov    -0x8(%rbp),%rax
    35d2:	48 8b 00             	mov    (%rax),%rax
    35d5:	48 29 c2             	sub    %rax,%rdx
    35d8:	48 89 d0             	mov    %rdx,%rax
    35db:	48 c1 f8 05          	sar    $0x5,%rax
    35df:	48 89 c2             	mov    %rax,%rdx
    35e2:	48 8b 45 f8          	mov    -0x8(%rbp),%rax
    35e6:	48 8b 08             	mov    (%rax),%rcx
    35e9:	48 8b 45 f8          	mov    -0x8(%rbp),%rax
    35ed:	48 89 ce             	mov    %rcx,%rsi
    35f0:	48 89 c7             	mov    %rax,%rdi
    35f3:	e8 92 02 00 00       	call   0x388a
    35f8:	48 8b 45 f8          	mov    -0x8(%rbp),%rax
    35fc:	48 89 c7             	mov    %rax,%rdi
    35ff:	e8 68 ff ff ff       	call   0x356c
    3604:	90                   	nop
    3605:	c9                   	leave  
    3606:	c3                   	ret    
    3607:	90                   	nop
    3608:	f3 0f 1e fa          	endbr64 
    360c:	55                   	push   %rbp
    360d:	48 89 e5             	mov    %rsp,%rbp
    3610:	48 89 7d f8          	mov    %rdi,-0x8(%rbp)
    3614:	48 8b 45 f8          	mov    -0x8(%rbp),%rax
    3618:	48 8b 00             	mov    (%rax),%rax
    361b:	5d                   	pop    %rbp
    361c:	c3                   	ret    
    361d:	90                   	nop
    361e:	f3 0f 1e fa          	endbr64 
    3622:	55                   	push   %rbp
    3623:	48 89 e5             	mov    %rsp,%rbp
    3626:	53                   	push   %rbx
    3627:	48 83 ec 18          	sub    $0x18,%rsp
    362b:	48 89 7d e8          	mov    %rdi,-0x18(%rbp)
    362f:	48 8b 45 e8          	mov    -0x18(%rbp),%rax
    3633:	48 89 c7             	mov    %rax,%rdi
    3636:	e8 cd ff ff ff       	call   0x3608
    363b:	48 89 c3             	mov    %rax,%rbx
    363e:	48 8b 45 e8          	mov    -0x18(%rbp),%rax
    3642:	48 89 c7             	mov    %rax,%rdi
    3645:	e8 7a 02 00 00       	call   0x38c4
    364a:	48 c1 e0 05          	shl    $0x5,%rax
    364e:	48 01 d8             	add    %rbx,%rax
    3651:	48 83 c4 18          	add    $0x18,%rsp
    3655:	5b                   	pop    %rbx
    3656:	5d                   	pop    %rbp
    3657:	c3                   	ret    
    3658:	f3 0f 1e fa          	endbr64 
    365c:	55                   	push   %rbp
    365d:	48 89 e5             	mov    %rsp,%rbp
    3660:	53                   	push   %rbx
    3661:	48 83 ec 38          	sub    $0x38,%rsp
    3665:	48 89 7d d8          	mov    %rdi,-0x28(%rbp)
    3669:	48 89 75 d0          	mov    %rsi,-0x30(%rbp)
    366d:	48 89 55 c8          	mov    %rdx,-0x38(%rbp)
    3671:	48 8b 55 c8          	mov    -0x38(%rbp),%rdx
    3675:	48 8b 45 d0          	mov    -0x30(%rbp),%rax
    3679:	48 89 d6             	mov    %rdx,%rsi
    367c:	48 89 c7             	mov    %rax,%rdi
    367f:	e8 56 02 00 00       	call   0x38da
    3684:	48 89 45 e8          	mov    %rax,-0x18(%rbp)
    3688:	48 8b 5d d8          	mov    -0x28(%rbp),%rbx
    368c:	48 8b 45 d8          	mov    -0x28(%rbp),%rax
    3690:	48 89 c7             	mov    %rax,%rdi
    3693:	e8 da 02 00 00       	call   0x3972
    3698:	48 89 c2             	mov    %rax,%rdx
    369b:	48 8b 45 e8          	mov    -0x18(%rbp),%rax
    369f:	48 89 d6             	mov    %rdx,%rsi
    36a2:	48 89 c7             	mov    %rax,%rdi
    36a5:	e8 65 02 00 00       	call   0x390f
    36aa:	48 89 c6             	mov    %rax,%rsi
    36ad:	48 89 df             	mov    %rbx,%rdi
    36b0:	e8 cf 02 00 00       	call   0x3984
    36b5:	48 8b 55 d8          	mov    -0x28(%rbp),%rdx
    36b9:	48 89 02             	mov    %rax,(%rdx)
    36bc:	48 8b 45 d8          	mov    -0x28(%rbp),%rax
    36c0:	48 8b 00             	mov    (%rax),%rax
    36c3:	48 8b 55 e8          	mov    -0x18(%rbp),%rdx
    36c7:	48 c1 e2 05          	shl    $0x5,%rdx
    36cb:	48 01 c2             	add    %rax,%rdx
    36ce:	48 8b 45 d8          	mov    -0x28(%rbp),%rax
    36d2:	48 89 50 10          	mov    %rdx,0x10(%rax)
    36d6:	48 8b 45 d8          	mov    -0x28(%rbp),%rax
    36da:	48 89 c7             	mov    %rax,%rdi
    36dd:	e8 90 02 00 00       	call   0x3972
    36e2:	48 89 c1             	mov    %rax,%rcx
    36e5:	48 8b 45 d8          	mov    -0x28(%rbp),%rax
    36e9:	48 8b 10             	mov    (%rax),%rdx
    36ec:	48 8b 75 c8          	mov    -0x38(%rbp),%rsi
    36f0:	48 8b 45 d0          	mov    -0x30(%rbp),%rax
    36f4:	48 89 c7             	mov    %rax,%rdi
    36f7:	e8 bf 02 00 00       	call   0x39bb
    36fc:	48 8b 55 d8          	mov    -0x28(%rbp),%rdx
    3700:	48 89 42 08          	mov    %rax,0x8(%rdx)
    3704:	90                   	nop
    3705:	48 83 c4 38          	add    $0x38,%rsp
    3709:	5b                   	pop    %rbx
    370a:	5d                   	pop    %rbp
    370b:	c3                   	ret    
    370c:	f3 0f 1e fa          	endbr64 
    3710:	55                   	push   %rbp
    3711:	48 89 e5             	mov    %rsp,%rbp
    3714:	48 89 7d f8          	mov    %rdi,-0x8(%rbp)
    3718:	48 89 75 f0          	mov    %rsi,-0x10(%rbp)
    371c:	48 8b 45 f0          	mov    -0x10(%rbp),%rax
    3720:	48 8b 10             	mov    (%rax),%rdx
    3723:	48 8b 45 f8          	mov    -0x8(%rbp),%rax
    3727:	48 89 10             	mov    %rdx,(%rax)
    372a:	90                   	nop
    372b:	5d                   	pop    %rbp
    372c:	c3                   	ret    
    372d:	f3 0f 1e fa          	endbr64 
    3731:	55                   	push   %rbp
    3732:	48 89 e5             	mov    %rsp,%rbp
    3735:	48 83 ec 20          	sub    $0x20,%rsp
    3739:	48 89 7d e8          	mov    %rdi,-0x18(%rbp)
    373d:	48 8b 55 e8          	mov    -0x18(%rbp),%rdx
    3741:	48 8d 45 f8          	lea    -0x8(%rbp),%rax
    3745:	48 89 d6             	mov    %rdx,%rsi
    3748:	48 89 c7             	mov    %rax,%rdi
    374b:	e8 a0 02 00 00       	call   0x39f0
    3750:	48 8b 45 f8          	mov    -0x8(%rbp),%rax
    3754:	c9                   	leave  
    3755:	c3                   	ret    
    3756:	f3 0f 1e fa          	endbr64 
    375a:	55                   	push   %rbp
    375b:	48 89 e5             	mov    %rsp,%rbp
    375e:	48 83 ec 30          	sub    $0x30,%rsp
    3762:	48 89 7d e8          	mov    %rdi,-0x18(%rbp)
    3766:	48 89 75 e0          	mov    %rsi,-0x20(%rbp)
    376a:	48 89 55 d8          	mov    %rdx,-0x28(%rbp)
    376e:	48 8d 45 e8          	lea    -0x18(%rbp),%rax
    3772:	48 89 c7             	mov    %rax,%rdi
    3775:	e8 94 02 00 00       	call   0x3a0e
    377a:	48 8b 55 d8          	mov    -0x28(%rbp),%rdx
    377e:	48 8b 4d e0          	mov    -0x20(%rbp),%rcx
    3782:	48 8b 45 e8          	mov    -0x18(%rbp),%rax
    3786:	48 89 ce             	mov    %rcx,%rsi
    3789:	48 89 c7             	mov    %rax,%rdi
    378c:	e8 8b 02 00 00       	call   0x3a1c
    3791:	c9                   	leave  
    3792:	c3                   	ret    
    3793:	90                   	nop
    3794:	f3 0f 1e fa          	endbr64 
    3798:	55                   	push   %rbp
    3799:	48 89 e5             	mov    %rsp,%rbp
    379c:	48 89 7d f8          	mov    %rdi,-0x8(%rbp)
    37a0:	48 8b 45 f8          	mov    -0x8(%rbp),%rax
    37a4:	5d                   	pop    %rbp
    37a5:	c3                   	ret    
    37a6:	f3 0f 1e fa          	endbr64 
    37aa:	55                   	push   %rbp
    37ab:	48 89 e5             	mov    %rsp,%rbp
    37ae:	48 89 7d f8          	mov    %rdi,-0x8(%rbp)
    37b2:	48 8b 45 f8          	mov    -0x8(%rbp),%rax
    37b6:	5d                   	pop    %rbp
    37b7:	c3                   	ret    
    37b8:	f3 0f 1e fa          	endbr64 
    37bc:	55                   	push   %rbp
    37bd:	48 89 e5             	mov    %rsp,%rbp
    37c0:	48 89 7d f8          	mov    %rdi,-0x8(%rbp)
    37c4:	48 8b 45 f8          	mov    -0x8(%rbp),%rax
    37c8:	5d                   	pop    %rbp
    37c9:	c3                   	ret    
    37ca:	f3 0f 1e fa          	endbr64 
    37ce:	55                   	push   %rbp
    37cf:	48 89 e5             	mov    %rsp,%rbp
    37d2:	48 89 7d f8          	mov    %rdi,-0x8(%rbp)
    37d6:	48 8b 45 f8          	mov    -0x8(%rbp),%rax
    37da:	5d                   	pop    %rbp
    37db:	c3                   	ret    
    37dc:	f3 0f 1e fa          	endbr64 
    37e0:	55                   	push   %rbp
    37e1:	48 89 e5             	mov    %rsp,%rbp
    37e4:	48 83 ec 20          	sub    $0x20,%rsp
    37e8:	48 89 7d f8          	mov    %rdi,-0x8(%rbp)
    37ec:	48 89 75 f0          	mov    %rsi,-0x10(%rbp)
    37f0:	48 89 55 e8          	mov    %rdx,-0x18(%rbp)
    37f4:	48 8b 55 f0          	mov    -0x10(%rbp),%rdx
    37f8:	48 8b 45 f8          	mov    -0x8(%rbp),%rax
    37fc:	48 89 d6             	mov    %rdx,%rsi
    37ff:	48 89 c7             	mov    %rax,%rdi
    3802:	e8 bf 03 00 00       	call   0x3bc6
    3807:	90                   	nop
    3808:	c9                   	leave  
    3809:	c3                   	ret    
    380a:	f3 0f 1e fa          	endbr64 
    380e:	55                   	push   %rbp
    380f:	48 89 e5             	mov    %rsp,%rbp
    3812:	48 89 7d f8          	mov    %rdi,-0x8(%rbp)
    3816:	90                   	nop
    3817:	5d                   	pop    %rbp
    3818:	c3                   	ret    
    3819:	90                   	nop
    381a:	f3 0f 1e fa          	endbr64 
    381e:	55                   	push   %rbp
    381f:	48 89 e5             	mov    %rsp,%rbp
    3822:	48 83 ec 20          	sub    $0x20,%rsp
    3826:	48 89 7d f8          	mov    %rdi,-0x8(%rbp)
    382a:	48 89 75 f0          	mov    %rsi,-0x10(%rbp)
    382e:	48 89 55 e8          	mov    %rdx,-0x18(%rbp)
    3832:	48 83 7d f0 00       	cmpq   $0x0,-0x10(%rbp)
    3837:	74 17                	je     0x3850
    3839:	48 8b 45 f8          	mov    -0x8(%rbp),%rax
    383d:	48 8b 55 e8          	mov    -0x18(%rbp),%rdx
    3841:	48 8b 4d f0          	mov    -0x10(%rbp),%rcx
    3845:	48 89 ce             	mov    %rcx,%rsi
    3848:	48 89 c7             	mov    %rax,%rdi
    384b:	e8 a0 03 00 00       	call   0x3bf0
    3850:	90                   	nop
    3851:	c9                   	leave  
    3852:	c3                   	ret    
    3853:	90                   	nop
    3854:	f3 0f 1e fa          	endbr64 
    3858:	55                   	push   %rbp
    3859:	48 89 e5             	mov    %rsp,%rbp
    385c:	48 83 ec 10          	sub    $0x10,%rsp
    3860:	48 89 7d f8          	mov    %rdi,-0x8(%rbp)
    3864:	48 89 75 f0          	mov    %rsi,-0x10(%rbp)
    3868:	48 8b 55 f0          	mov    -0x10(%rbp),%rdx
    386c:	48 8b 45 f8          	mov    -0x8(%rbp),%rax
    3870:	48 89 d6             	mov    %rdx,%rsi
    3873:	48 89 c7             	mov    %rax,%rdi
    3876:	e8 a7 03 00 00       	call   0x3c22
    387b:	48 8b 45 f8          	mov    -0x8(%rbp),%rax
    387f:	48 89 c7             	mov    %rax,%rdi
    3882:	e8 c5 03 00 00       	call   0x3c4c
    3887:	90                   	nop
    3888:	c9                   	leave  
    3889:	c3                   	ret    
    388a:	f3 0f 1e fa          	endbr64 
    388e:	55                   	push   %rbp
    388f:	48 89 e5             	mov    %rsp,%rbp
    3892:	48 83 ec 20          	sub    $0x20,%rsp
    3896:	48 89 7d f8          	mov    %rdi,-0x8(%rbp)
    389a:	48 89 75 f0          	mov    %rsi,-0x10(%rbp)
    389e:	48 89 55 e8          	mov    %rdx,-0x18(%rbp)
    38a2:	48 83 7d f0 00       	cmpq   $0x0,-0x10(%rbp)
    38a7:	74 17                	je     0x38c0
    38a9:	48 8b 45 f8          	mov    -0x8(%rbp),%rax
    38ad:	48 8b 55 e8          	mov    -0x18(%rbp),%rdx
    38b1:	48 8b 4d f0          	mov    -0x10(%rbp),%rcx
    38b5:	48 89 ce             	mov    %rcx,%rsi
    38b8:	48 89 c7             	mov    %rax,%rdi
    38bb:	e8 be 03 00 00       	call   0x3c7e
    38c0:	90                   	nop
    38c1:	c9                   	leave  
    38c2:	c3                   	ret    
    38c3:	90                   	nop
    38c4:	f3 0f 1e fa          	endbr64 
    38c8:	55                   	push   %rbp
    38c9:	48 89 e5             	mov    %rsp,%rbp
    38cc:	48 89 7d f8          	mov    %rdi,-0x8(%rbp)
    38d0:	48 8b 45 f8          	mov    -0x8(%rbp),%rax
    38d4:	48 8b 40 08          	mov    0x8(%rax),%rax
    38d8:	5d                   	pop    %rbp
    38d9:	c3                   	ret    
    38da:	f3 0f 1e fa          	endbr64 
    38de:	55                   	push   %rbp
    38df:	48 89 e5             	mov    %rsp,%rbp
    38e2:	48 83 ec 20          	sub    $0x20,%rsp
    38e6:	48 89 7d e8          	mov    %rdi,-0x18(%rbp)
    38ea:	48 89 75 e0          	mov    %rsi,-0x20(%rbp)
    38ee:	48 8d 45 e8          	lea    -0x18(%rbp),%rax
    38f2:	48 89 c7             	mov    %rax,%rdi
    38f5:	e8 b6 03 00 00       	call   0x3cb0
    38fa:	48 8b 45 e8          	mov    -0x18(%rbp),%rax
    38fe:	48 8b 55 e0          	mov    -0x20(%rbp),%rdx
    3902:	48 89 d6             	mov    %rdx,%rsi
    3905:	48 89 c7             	mov    %rax,%rdi
    3908:	e8 b1 03 00 00       	call   0x3cbe
    390d:	c9                   	leave  
    390e:	c3                   	ret    
    390f:	f3 0f 1e fa          	endbr64 
    3913:	55                   	push   %rbp
    3914:	48 89 e5             	mov    %rsp,%rbp
    3917:	53                   	push   %rbx
    3918:	48 83 ec 28          	sub    $0x28,%rsp
    391c:	48 89 7d d8          	mov    %rdi,-0x28(%rbp)
    3920:	48 89 75 d0          	mov    %rsi,-0x30(%rbp)
    3924:	48 8b 55 d0          	mov    -0x30(%rbp),%rdx
    3928:	48 8d 45 ef          	lea    -0x11(%rbp),%rax
    392c:	48 89 d6             	mov    %rdx,%rsi
    392f:	48 89 c7             	mov    %rax,%rdi
    3932:	e8 eb 02 00 00       	call   0x3c22
    3937:	48 8d 45 ef          	lea    -0x11(%rbp),%rax
    393b:	48 89 c7             	mov    %rax,%rdi
    393e:	e8 99 03 00 00       	call   0x3cdc
    3943:	48 39 45 d8          	cmp    %rax,-0x28(%rbp)
    3947:	0f 97 c3             	seta   %bl
    394a:	48 8d 45 ef          	lea    -0x11(%rbp),%rax
    394e:	48 89 c7             	mov    %rax,%rdi
    3951:	e8 bc f7 ff ff       	call   0x3112
    3956:	84 db                	test   %bl,%bl
    3958:	74 0c                	je     0x3966
    395a:	48 8d 3d a7 1f 00 00 	lea    0x1fa7(%rip),%rdi        # 0x5908
    3961:	e8 1a e6 ff ff       	call   0x1f80
    3966:	48 8b 45 d8          	mov    -0x28(%rbp),%rax
    396a:	48 83 c4 28          	add    $0x28,%rsp
    396e:	5b                   	pop    %rbx
    396f:	5d                   	pop    %rbp
    3970:	c3                   	ret    
    3971:	90                   	nop
    3972:	f3 0f 1e fa          	endbr64 
    3976:	55                   	push   %rbp
    3977:	48 89 e5             	mov    %rsp,%rbp
    397a:	48 89 7d f8          	mov    %rdi,-0x8(%rbp)
    397e:	48 8b 45 f8          	mov    -0x8(%rbp),%rax
    3982:	5d                   	pop    %rbp
    3983:	c3                   	ret    
    3984:	f3 0f 1e fa          	endbr64 
    3988:	55                   	push   %rbp
    3989:	48 89 e5             	mov    %rsp,%rbp
    398c:	48 83 ec 10          	sub    $0x10,%rsp
    3990:	48 89 7d f8          	mov    %rdi,-0x8(%rbp)
    3994:	48 89 75 f0          	mov    %rsi,-0x10(%rbp)
    3998:	48 83 7d f0 00       	cmpq   $0x0,-0x10(%rbp)
    399d:	74 15                	je     0x39b4
    399f:	48 8b 45 f8          	mov    -0x8(%rbp),%rax
    39a3:	48 8b 55 f0          	mov    -0x10(%rbp),%rdx
    39a7:	48 89 d6             	mov    %rdx,%rsi
    39aa:	48 89 c7             	mov    %rax,%rdi
    39ad:	e8 70 03 00 00       	call   0x3d22
    39b2:	eb 05                	jmp    0x39b9
    39b4:	b8 00 00 00 00       	mov    $0x0,%eax
    39b9:	c9                   	leave  
    39ba:	c3                   	ret    
    39bb:	f3 0f 1e fa          	endbr64 
    39bf:	55                   	push   %rbp
    39c0:	48 89 e5             	mov    %rsp,%rbp
    39c3:	48 83 ec 20          	sub    $0x20,%rsp
    39c7:	48 89 7d f8          	mov    %rdi,-0x8(%rbp)
    39cb:	48 89 75 f0          	mov    %rsi,-0x10(%rbp)
    39cf:	48 89 55 e8          	mov    %rdx,-0x18(%rbp)
    39d3:	48 89 4d e0          	mov    %rcx,-0x20(%rbp)
    39d7:	48 8b 55 e8          	mov    -0x18(%rbp),%rdx
    39db:	48 8b 4d f0          	mov    -0x10(%rbp),%rcx
    39df:	48 8b 45 f8          	mov    -0x8(%rbp),%rax
    39e3:	48 89 ce             	mov    %rcx,%rsi
    39e6:	48 89 c7             	mov    %rax,%rdi
    39e9:	e8 62 03 00 00       	call   0x3d50
    39ee:	c9                   	leave  
    39ef:	c3                   	ret    
    39f0:	f3 0f 1e fa          	endbr64 
    39f4:	55                   	push   %rbp
    39f5:	48 89 e5             	mov    %rsp,%rbp
    39f8:	48 89 7d f8          	mov    %rdi,-0x8(%rbp)
    39fc:	48 89 75 f0          	mov    %rsi,-0x10(%rbp)
    3a00:	48 8b 45 f8          	mov    -0x8(%rbp),%rax
    3a04:	48 8b 55 f0          	mov    -0x10(%rbp),%rdx
    3a08:	48 89 10             	mov    %rdx,(%rax)
    3a0b:	90                   	nop
    3a0c:	5d                   	pop    %rbp
    3a0d:	c3                   	ret    
    3a0e:	f3 0f 1e fa          	endbr64 
    3a12:	55                   	push   %rbp
    3a13:	48 89 e5             	mov    %rsp,%rbp
    3a16:	48 89 7d f8          	mov    %rdi,-0x8(%rbp)
    3a1a:	5d                   	pop    %rbp
    3a1b:	c3                   	ret    
    3a1c:	f3 0f 1e fa          	endbr64 
    3a20:	55                   	push   %rbp
    3a21:	48 89 e5             	mov    %rsp,%rbp
    3a24:	48 83 ec 30          	sub    $0x30,%rsp
    3a28:	48 89 7d e8          	mov    %rdi,-0x18(%rbp)
    3a2c:	48 89 75 e0          	mov    %rsi,-0x20(%rbp)
    3a30:	48 89 55 d8          	mov    %rdx,-0x28(%rbp)
    3a34:	48 8d 55 e8          	lea    -0x18(%rbp),%rdx
    3a38:	48 8d 45 e0          	lea    -0x20(%rbp),%rax
    3a3c:	48 89 d6             	mov    %rdx,%rsi
    3a3f:	48 89 c7             	mov    %rax,%rdi
    3a42:	e8 3e 03 00 00       	call   0x3d85
    3a47:	48 c1 f8 02          	sar    $0x2,%rax
    3a4b:	48 89 45 f8          	mov    %rax,-0x8(%rbp)
    3a4f:	48 83 7d f8 00       	cmpq   $0x0,-0x8(%rbp)
    3a54:	0f 8e ba 00 00 00    	jle    0x3b14
    3a5a:	48 8b 55 e8          	mov    -0x18(%rbp),%rdx
    3a5e:	48 8d 45 d8          	lea    -0x28(%rbp),%rax
    3a62:	48 89 d6             	mov    %rdx,%rsi
    3a65:	48 89 c7             	mov    %rax,%rdi
    3a68:	e8 5d 03 00 00       	call   0x3dca
    3a6d:	84 c0                	test   %al,%al
    3a6f:	74 09                	je     0x3a7a
    3a71:	48 8b 45 e8          	mov    -0x18(%rbp),%rax
    3a75:	e9 4a 01 00 00       	jmp    0x3bc4
    3a7a:	48 8d 45 e8          	lea    -0x18(%rbp),%rax
    3a7e:	48 89 c7             	mov    %rax,%rdi
    3a81:	e8 7e 03 00 00       	call   0x3e04
    3a86:	48 8b 55 e8          	mov    -0x18(%rbp),%rdx
    3a8a:	48 8d 45 d8          	lea    -0x28(%rbp),%rax
    3a8e:	48 89 d6             	mov    %rdx,%rsi
    3a91:	48 89 c7             	mov    %rax,%rdi
    3a94:	e8 31 03 00 00       	call   0x3dca
    3a99:	84 c0                	test   %al,%al
    3a9b:	74 09                	je     0x3aa6
    3a9d:	48 8b 45 e8          	mov    -0x18(%rbp),%rax
    3aa1:	e9 1e 01 00 00       	jmp    0x3bc4
    3aa6:	48 8d 45 e8          	lea    -0x18(%rbp),%rax
    3aaa:	48 89 c7             	mov    %rax,%rdi
    3aad:	e8 52 03 00 00       	call   0x3e04
    3ab2:	48 8b 55 e8          	mov    -0x18(%rbp),%rdx
    3ab6:	48 8d 45 d8          	lea    -0x28(%rbp),%rax
    3aba:	48 89 d6             	mov    %rdx,%rsi
    3abd:	48 89 c7             	mov    %rax,%rdi
    3ac0:	e8 05 03 00 00       	call   0x3dca
    3ac5:	84 c0                	test   %al,%al
    3ac7:	74 09                	je     0x3ad2
    3ac9:	48 8b 45 e8          	mov    -0x18(%rbp),%rax
    3acd:	e9 f2 00 00 00       	jmp    0x3bc4
    3ad2:	48 8d 45 e8          	lea    -0x18(%rbp),%rax
    3ad6:	48 89 c7             	mov    %rax,%rdi
    3ad9:	e8 26 03 00 00       	call   0x3e04
    3ade:	48 8b 55 e8          	mov    -0x18(%rbp),%rdx
    3ae2:	48 8d 45 d8          	lea    -0x28(%rbp),%rax
    3ae6:	48 89 d6             	mov    %rdx,%rsi
    3ae9:	48 89 c7             	mov    %rax,%rdi
    3aec:	e8 d9 02 00 00       	call   0x3dca
    3af1:	84 c0                	test   %al,%al
    3af3:	74 09                	je     0x3afe
    3af5:	48 8b 45 e8          	mov    -0x18(%rbp),%rax
    3af9:	e9 c6 00 00 00       	jmp    0x3bc4
    3afe:	48 8d 45 e8          	lea    -0x18(%rbp),%rax
    3b02:	48 89 c7             	mov    %rax,%rdi
    3b05:	e8 fa 02 00 00       	call   0x3e04
    3b0a:	48 83 6d f8 01       	subq   $0x1,-0x8(%rbp)
    3b0f:	e9 3b ff ff ff       	jmp    0x3a4f
    3b14:	48 8d 55 e8          	lea    -0x18(%rbp),%rdx
    3b18:	48 8d 45 e0          	lea    -0x20(%rbp),%rax
    3b1c:	48 89 d6             	mov    %rdx,%rsi
    3b1f:	48 89 c7             	mov    %rax,%rdi
    3b22:	e8 5e 02 00 00       	call   0x3d85
    3b27:	48 83 f8 03          	cmp    $0x3,%rax
    3b2b:	74 18                	je     0x3b45
    3b2d:	48 83 f8 03          	cmp    $0x3,%rax
    3b31:	0f 8f 89 00 00 00    	jg     0x3bc0
    3b37:	48 83 f8 01          	cmp    $0x1,%rax
    3b3b:	74 5a                	je     0x3b97
    3b3d:	48 83 f8 02          	cmp    $0x2,%rax
    3b41:	74 2b                	je     0x3b6e
    3b43:	eb 7b                	jmp    0x3bc0
    3b45:	48 8b 55 e8          	mov    -0x18(%rbp),%rdx
    3b49:	48 8d 45 d8          	lea    -0x28(%rbp),%rax
    3b4d:	48 89 d6             	mov    %rdx,%rsi
    3b50:	48 89 c7             	mov    %rax,%rdi
    3b53:	e8 72 02 00 00       	call   0x3dca
    3b58:	84 c0                	test   %al,%al
    3b5a:	74 06                	je     0x3b62
    3b5c:	48 8b 45 e8          	mov    -0x18(%rbp),%rax
    3b60:	eb 62                	jmp    0x3bc4
    3b62:	48 8d 45 e8          	lea    -0x18(%rbp),%rax
    3b66:	48 89 c7             	mov    %rax,%rdi
    3b69:	e8 96 02 00 00       	call   0x3e04
    3b6e:	48 8b 55 e8          	mov    -0x18(%rbp),%rdx
    3b72:	48 8d 45 d8          	lea    -0x28(%rbp),%rax
    3b76:	48 89 d6             	mov    %rdx,%rsi
    3b79:	48 89 c7             	mov    %rax,%rdi
    3b7c:	e8 49 02 00 00       	call   0x3dca
    3b81:	84 c0                	test   %al,%al
    3b83:	74 06                	je     0x3b8b
    3b85:	48 8b 45 e8          	mov    -0x18(%rbp),%rax
    3b89:	eb 39                	jmp    0x3bc4
    3b8b:	48 8d 45 e8          	lea    -0x18(%rbp),%rax
    3b8f:	48 89 c7             	mov    %rax,%rdi
    3b92:	e8 6d 02 00 00       	call   0x3e04
    3b97:	48 8b 55 e8          	mov    -0x18(%rbp),%rdx
    3b9b:	48 8d 45 d8          	lea    -0x28(%rbp),%rax
    3b9f:	48 89 d6             	mov    %rdx,%rsi
    3ba2:	48 89 c7             	mov    %rax,%rdi
    3ba5:	e8 20 02 00 00       	call   0x3dca
    3baa:	84 c0                	test   %al,%al
    3bac:	74 06                	je     0x3bb4
    3bae:	48 8b 45 e8          	mov    -0x18(%rbp),%rax
    3bb2:	eb 10                	jmp    0x3bc4
    3bb4:	48 8d 45 e8          	lea    -0x18(%rbp),%rax
    3bb8:	48 89 c7             	mov    %rax,%rdi
    3bbb:	e8 44 02 00 00       	call   0x3e04
    3bc0:	48 8b 45 e0          	mov    -0x20(%rbp),%rax
    3bc4:	c9                   	leave  
    3bc5:	c3                   	ret    
    3bc6:	f3 0f 1e fa          	endbr64 
    3bca:	55                   	push   %rbp
    3bcb:	48 89 e5             	mov    %rsp,%rbp
    3bce:	48 83 ec 10          	sub    $0x10,%rsp
    3bd2:	48 89 7d f8          	mov    %rdi,-0x8(%rbp)
    3bd6:	48 89 75 f0          	mov    %rsi,-0x10(%rbp)
    3bda:	48 8b 55 f0          	mov    -0x10(%rbp),%rdx
    3bde:	48 8b 45 f8          	mov    -0x8(%rbp),%rax
    3be2:	48 89 d6             	mov    %rdx,%rsi
    3be5:	48 89 c7             	mov    %rax,%rdi
    3be8:	e8 3b 02 00 00       	call   0x3e28
    3bed:	90                   	nop
    3bee:	c9                   	leave  
    3bef:	c3                   	ret    
    3bf0:	f3 0f 1e fa          	endbr64 
    3bf4:	55                   	push   %rbp
    3bf5:	48 89 e5             	mov    %rsp,%rbp
    3bf8:	48 83 ec 20          	sub    $0x20,%rsp
    3bfc:	48 89 7d f8          	mov    %rdi,-0x8(%rbp)
    3c00:	48 89 75 f0          	mov    %rsi,-0x10(%rbp)
    3c04:	48 89 55 e8          	mov    %rdx,-0x18(%rbp)
    3c08:	48 8b 55 e8          	mov    -0x18(%rbp),%rdx
    3c0c:	48 8b 4d f0          	mov    -0x10(%rbp),%rcx
    3c10:	48 8b 45 f8          	mov    -0x8(%rbp),%rax
    3c14:	48 89 ce             	mov    %rcx,%rsi
    3c17:	48 89 c7             	mov    %rax,%rdi
    3c1a:	e8 1d 02 00 00       	call   0x3e3c
    3c1f:	90                   	nop
    3c20:	c9                   	leave  
    3c21:	c3                   	ret    
    3c22:	f3 0f 1e fa          	endbr64 
    3c26:	55                   	push   %rbp
    3c27:	48 89 e5             	mov    %rsp,%rbp
    3c2a:	48 83 ec 10          	sub    $0x10,%rsp
    3c2e:	48 89 7d f8          	mov    %rdi,-0x8(%rbp)
    3c32:	48 89 75 f0          	mov    %rsi,-0x10(%rbp)
    3c36:	48 8b 55 f0          	mov    -0x10(%rbp),%rdx
    3c3a:	48 8b 45 f8          	mov    -0x8(%rbp),%rax
    3c3e:	48 89 d6             	mov    %rdx,%rsi
    3c41:	48 89 c7             	mov    %rax,%rdi
    3c44:	e8 1b 02 00 00       	call   0x3e64
    3c49:	90                   	nop
    3c4a:	c9                   	leave  
    3c4b:	c3                   	ret    
    3c4c:	f3 0f 1e fa          	endbr64 
    3c50:	55                   	push   %rbp
    3c51:	48 89 e5             	mov    %rsp,%rbp
    3c54:	48 89 7d f8          	mov    %rdi,-0x8(%rbp)
    3c58:	48 8b 45 f8          	mov    -0x8(%rbp),%rax
    3c5c:	48 c7 00 00 00 00 00 	movq   $0x0,(%rax)
    3c63:	48 8b 45 f8          	mov    -0x8(%rbp),%rax
    3c67:	48 c7 40 08 00 00 00 	movq   $0x0,0x8(%rax)
    3c6e:	00 
    3c6f:	48 8b 45 f8          	mov    -0x8(%rbp),%rax
    3c73:	48 c7 40 10 00 00 00 	movq   $0x0,0x10(%rax)
    3c7a:	00 
    3c7b:	90                   	nop
    3c7c:	5d                   	pop    %rbp
    3c7d:	c3                   	ret    
    3c7e:	f3 0f 1e fa          	endbr64 
    3c82:	55                   	push   %rbp
    3c83:	48 89 e5             	mov    %rsp,%rbp
    3c86:	48 83 ec 20          	sub    $0x20,%rsp
    3c8a:	48 89 7d f8          	mov    %rdi,-0x8(%rbp)
    3c8e:	48 89 75 f0          	mov    %rsi,-0x10(%rbp)
    3c92:	48 89 55 e8          	mov    %rdx,-0x18(%rbp)
    3c96:	48 8b 55 e8          	mov    -0x18(%rbp),%rdx
    3c9a:	48 8b 4d f0          	mov    -0x10(%rbp),%rcx
    3c9e:	48 8b 45 f8          	mov    -0x8(%rbp),%rax
    3ca2:	48 89 ce             	mov    %rcx,%rsi
    3ca5:	48 89 c7             	mov    %rax,%rdi
    3ca8:	e8 cb 01 00 00       	call   0x3e78
    3cad:	90                   	nop
    3cae:	c9                   	leave  
    3caf:	c3                   	ret    
    3cb0:	f3 0f 1e fa          	endbr64 
    3cb4:	55                   	push   %rbp
    3cb5:	48 89 e5             	mov    %rsp,%rbp
    3cb8:	48 89 7d f8          	mov    %rdi,-0x8(%rbp)
    3cbc:	5d                   	pop    %rbp
    3cbd:	c3                   	ret    
    3cbe:	f3 0f 1e fa          	endbr64 
    3cc2:	55                   	push   %rbp
    3cc3:	48 89 e5             	mov    %rsp,%rbp
    3cc6:	48 89 7d f8          	mov    %rdi,-0x8(%rbp)
    3cca:	48 89 75 f0          	mov    %rsi,-0x10(%rbp)
    3cce:	48 8b 45 f0          	mov    -0x10(%rbp),%rax
    3cd2:	48 2b 45 f8          	sub    -0x8(%rbp),%rax
    3cd6:	48 c1 f8 05          	sar    $0x5,%rax
    3cda:	5d                   	pop    %rbp
    3cdb:	c3                   	ret    
    3cdc:	f3 0f 1e fa          	endbr64 
    3ce0:	55                   	push   %rbp
    3ce1:	48 89 e5             	mov    %rsp,%rbp
    3ce4:	48 83 ec 20          	sub    $0x20,%rsp
    3ce8:	48 89 7d e8          	mov    %rdi,-0x18(%rbp)
    3cec:	48 b8 ff ff ff ff ff 	movabs $0x3ffffffffffffff,%rax
    3cf3:	ff ff 03 
    3cf6:	48 89 45 f0          	mov    %rax,-0x10(%rbp)
    3cfa:	48 8b 45 e8          	mov    -0x18(%rbp),%rax
    3cfe:	48 89 c7             	mov    %rax,%rdi
    3d01:	e8 99 01 00 00       	call   0x3e9f
    3d06:	48 89 45 f8          	mov    %rax,-0x8(%rbp)
    3d0a:	48 8d 55 f8          	lea    -0x8(%rbp),%rdx
    3d0e:	48 8d 45 f0          	lea    -0x10(%rbp),%rax
    3d12:	48 89 d6             	mov    %rdx,%rsi
    3d15:	48 89 c7             	mov    %rax,%rdi
    3d18:	e8 a0 01 00 00       	call   0x3ebd
    3d1d:	48 8b 00             	mov    (%rax),%rax
    3d20:	c9                   	leave  
    3d21:	c3                   	ret    
    3d22:	f3 0f 1e fa          	endbr64 
    3d26:	55                   	push   %rbp
    3d27:	48 89 e5             	mov    %rsp,%rbp
    3d2a:	48 83 ec 10          	sub    $0x10,%rsp
    3d2e:	48 89 7d f8          	mov    %rdi,-0x8(%rbp)
    3d32:	48 89 75 f0          	mov    %rsi,-0x10(%rbp)
    3d36:	48 8b 4d f0          	mov    -0x10(%rbp),%rcx
    3d3a:	48 8b 45 f8          	mov    -0x8(%rbp),%rax
    3d3e:	ba 00 00 00 00       	mov    $0x0,%edx
    3d43:	48 89 ce             	mov    %rcx,%rsi
    3d46:	48 89 c7             	mov    %rax,%rdi
    3d49:	e8 9e 01 00 00       	call   0x3eec
    3d4e:	c9                   	leave  
    3d4f:	c3                   	ret    
    3d50:	f3 0f 1e fa          	endbr64 
    3d54:	55                   	push   %rbp
    3d55:	48 89 e5             	mov    %rsp,%rbp
    3d58:	48 83 ec 30          	sub    $0x30,%rsp
    3d5c:	48 89 7d e8          	mov    %rdi,-0x18(%rbp)
    3d60:	48 89 75 e0          	mov    %rsi,-0x20(%rbp)
    3d64:	48 89 55 d8          	mov    %rdx,-0x28(%rbp)
    3d68:	c6 45 ff 01          	movb   $0x1,-0x1(%rbp)
    3d6c:	48 8b 55 d8          	mov    -0x28(%rbp),%rdx
    3d70:	48 8b 4d e0          	mov    -0x20(%rbp),%rcx
    3d74:	48 8b 45 e8          	mov    -0x18(%rbp),%rax
    3d78:	48 89 ce             	mov    %rcx,%rsi
    3d7b:	48 89 c7             	mov    %rax,%rdi
    3d7e:	e8 af 01 00 00       	call   0x3f32
    3d83:	c9                   	leave  
    3d84:	c3                   	ret    
    3d85:	f3 0f 1e fa          	endbr64 
    3d89:	55                   	push   %rbp
    3d8a:	48 89 e5             	mov    %rsp,%rbp
    3d8d:	53                   	push   %rbx
    3d8e:	48 83 ec 18          	sub    $0x18,%rsp
    3d92:	48 89 7d e8          	mov    %rdi,-0x18(%rbp)
    3d96:	48 89 75 e0          	mov    %rsi,-0x20(%rbp)
    3d9a:	48 8b 45 e8          	mov    -0x18(%rbp),%rax
    3d9e:	48 89 c7             	mov    %rax,%rdi
    3da1:	e8 ee f9 ff ff       	call   0x3794
    3da6:	48 8b 18             	mov    (%rax),%rbx
    3da9:	48 8b 45 e0          	mov    -0x20(%rbp),%rax
    3dad:	48 89 c7             	mov    %rax,%rdi
    3db0:	e8 df f9 ff ff       	call   0x3794
    3db5:	48 8b 00             	mov    (%rax),%rax
    3db8:	48 29 c3             	sub    %rax,%rbx
    3dbb:	48 89 d8             	mov    %rbx,%rax
    3dbe:	48 c1 f8 05          	sar    $0x5,%rax
    3dc2:	48 83 c4 18          	add    $0x18,%rsp
    3dc6:	5b                   	pop    %rbx
    3dc7:	5d                   	pop    %rbp
    3dc8:	c3                   	ret    
    3dc9:	90                   	nop
    3dca:	f3 0f 1e fa          	endbr64 
    3dce:	55                   	push   %rbp
    3dcf:	48 89 e5             	mov    %rsp,%rbp
    3dd2:	53                   	push   %rbx
    3dd3:	48 83 ec 18          	sub    $0x18,%rsp
    3dd7:	48 89 7d e8          	mov    %rdi,-0x18(%rbp)
    3ddb:	48 89 75 e0          	mov    %rsi,-0x20(%rbp)
    3ddf:	48 8b 45 e8          	mov    -0x18(%rbp),%rax
    3de3:	48 8b 18             	mov    (%rax),%rbx
    3de6:	48 8d 45 e0          	lea    -0x20(%rbp),%rax
    3dea:	48 89 c7             	mov    %rax,%rdi
    3ded:	e8 de 01 00 00       	call   0x3fd0
    3df2:	48 89 de             	mov    %rbx,%rsi
    3df5:	48 89 c7             	mov    %rax,%rdi
    3df8:	e8 e8 01 00 00       	call   0x3fe5
    3dfd:	48 83 c4 18          	add    $0x18,%rsp
    3e01:	5b                   	pop    %rbx
    3e02:	5d                   	pop    %rbp
    3e03:	c3                   	ret    
    3e04:	f3 0f 1e fa          	endbr64 
    3e08:	55                   	push   %rbp
    3e09:	48 89 e5             	mov    %rsp,%rbp
    3e0c:	48 89 7d f8          	mov    %rdi,-0x8(%rbp)
    3e10:	48 8b 45 f8          	mov    -0x8(%rbp),%rax
    3e14:	48 8b 00             	mov    (%rax),%rax
    3e17:	48 8d 50 20          	lea    0x20(%rax),%rdx
    3e1b:	48 8b 45 f8          	mov    -0x8(%rbp),%rax
    3e1f:	48 89 10             	mov    %rdx,(%rax)
    3e22:	48 8b 45 f8          	mov    -0x8(%rbp),%rax
    3e26:	5d                   	pop    %rbp
    3e27:	c3                   	ret    
    3e28:	f3 0f 1e fa          	endbr64 
    3e2c:	55                   	push   %rbp
    3e2d:	48 89 e5             	mov    %rsp,%rbp
    3e30:	48 89 7d f8          	mov    %rdi,-0x8(%rbp)
    3e34:	48 89 75 f0          	mov    %rsi,-0x10(%rbp)
    3e38:	90                   	nop
    3e39:	5d                   	pop    %rbp
    3e3a:	c3                   	ret    
    3e3b:	90                   	nop
    3e3c:	f3 0f 1e fa          	endbr64 
    3e40:	55                   	push   %rbp
    3e41:	48 89 e5             	mov    %rsp,%rbp
    3e44:	48 83 ec 20          	sub    $0x20,%rsp
    3e48:	48 89 7d f8          	mov    %rdi,-0x8(%rbp)
    3e4c:	48 89 75 f0          	mov    %rsi,-0x10(%rbp)
    3e50:	48 89 55 e8          	mov    %rdx,-0x18(%rbp)
    3e54:	48 8b 45 f0          	mov    -0x10(%rbp),%rax
    3e58:	48 89 c7             	mov    %rax,%rdi
    3e5b:	e8 30 e1 ff ff       	call   0x1f90
    3e60:	90                   	nop
    3e61:	c9                   	leave  
    3e62:	c3                   	ret    
    3e63:	90                   	nop
    3e64:	f3 0f 1e fa          	endbr64 
    3e68:	55                   	push   %rbp
    3e69:	48 89 e5             	mov    %rsp,%rbp
    3e6c:	48 89 7d f8          	mov    %rdi,-0x8(%rbp)
    3e70:	48 89 75 f0          	mov    %rsi,-0x10(%rbp)
    3e74:	90                   	nop
    3e75:	5d                   	pop    %rbp
    3e76:	c3                   	ret    
    3e77:	90                   	nop
    3e78:	f3 0f 1e fa          	endbr64 
    3e7c:	55                   	push   %rbp
    3e7d:	48 89 e5             	mov    %rsp,%rbp
    3e80:	48 83 ec 20          	sub    $0x20,%rsp
    3e84:	48 89 7d f8          	mov    %rdi,-0x8(%rbp)
    3e88:	48 89 75 f0          	mov    %rsi,-0x10(%rbp)
    3e8c:	48 89 55 e8          	mov    %rdx,-0x18(%rbp)
    3e90:	48 8b 45 f0          	mov    -0x10(%rbp),%rax
    3e94:	48 89 c7             	mov    %rax,%rdi
    3e97:	e8 f4 e0 ff ff       	call   0x1f90
    3e9c:	90                   	nop
    3e9d:	c9                   	leave  
    3e9e:	c3                   	ret    
    3e9f:	f3 0f 1e fa          	endbr64 
    3ea3:	55                   	push   %rbp
    3ea4:	48 89 e5             	mov    %rsp,%rbp
    3ea7:	48 83 ec 10          	sub    $0x10,%rsp
    3eab:	48 89 7d f8          	mov    %rdi,-0x8(%rbp)
    3eaf:	48 8b 45 f8          	mov    -0x8(%rbp),%rax
    3eb3:	48 89 c7             	mov    %rax,%rdi
    3eb6:	e8 b3 01 00 00       	call   0x406e
    3ebb:	c9                   	leave  
    3ebc:	c3                   	ret    
    3ebd:	f3 0f 1e fa          	endbr64 
    3ec1:	55                   	push   %rbp
    3ec2:	48 89 e5             	mov    %rsp,%rbp
    3ec5:	48 89 7d f8          	mov    %rdi,-0x8(%rbp)
    3ec9:	48 89 75 f0          	mov    %rsi,-0x10(%rbp)
    3ecd:	48 8b 45 f0          	mov    -0x10(%rbp),%rax
    3ed1:	48 8b 10             	mov    (%rax),%rdx
    3ed4:	48 8b 45 f8          	mov    -0x8(%rbp),%rax
    3ed8:	48 8b 00             	mov    (%rax),%rax
    3edb:	48 39 c2             	cmp    %rax,%rdx
    3ede:	73 06                	jae    0x3ee6
    3ee0:	48 8b 45 f0          	mov    -0x10(%rbp),%rax
    3ee4:	eb 04                	jmp    0x3eea
    3ee6:	48 8b 45 f8          	mov    -0x8(%rbp),%rax
    3eea:	5d                   	pop    %rbp
    3eeb:	c3                   	ret    
    3eec:	f3 0f 1e fa          	endbr64 
    3ef0:	55                   	push   %rbp
    3ef1:	48 89 e5             	mov    %rsp,%rbp
    3ef4:	48 83 ec 20          	sub    $0x20,%rsp
    3ef8:	48 89 7d f8          	mov    %rdi,-0x8(%rbp)
    3efc:	48 89 75 f0          	mov    %rsi,-0x10(%rbp)
    3f00:	48 89 55 e8          	mov    %rdx,-0x18(%rbp)
    3f04:	48 8b 45 f8          	mov    -0x8(%rbp),%rax
    3f08:	48 89 c7             	mov    %rax,%rdi
    3f0b:	e8 5e 01 00 00       	call   0x406e
    3f10:	48 39 45 f0          	cmp    %rax,-0x10(%rbp)
    3f14:	0f 97 c0             	seta   %al
    3f17:	84 c0                	test   %al,%al
    3f19:	74 05                	je     0x3f20
    3f1b:	e8 80 e0 ff ff       	call   0x1fa0
    3f20:	48 8b 45 f0          	mov    -0x10(%rbp),%rax
    3f24:	48 c1 e0 05          	shl    $0x5,%rax
    3f28:	48 89 c7             	mov    %rax,%rdi
    3f2b:	e8 80 e0 ff ff       	call   0x1fb0
    3f30:	c9                   	leave  
    3f31:	c3                   	ret    
    3f32:	f3 0f 1e fa          	endbr64 
    3f36:	55                   	push   %rbp
    3f37:	48 89 e5             	mov    %rsp,%rbp
    3f3a:	53                   	push   %rbx
    3f3b:	48 83 ec 38          	sub    $0x38,%rsp
    3f3f:	48 89 7d d8          	mov    %rdi,-0x28(%rbp)
    3f43:	48 89 75 d0          	mov    %rsi,-0x30(%rbp)
    3f47:	48 89 55 c8          	mov    %rdx,-0x38(%rbp)
    3f4b:	48 8b 45 c8          	mov    -0x38(%rbp),%rax
    3f4f:	48 89 45 e8          	mov    %rax,-0x18(%rbp)
    3f53:	48 8b 45 d8          	mov    -0x28(%rbp),%rax
    3f57:	48 3b 45 d0          	cmp    -0x30(%rbp),%rax
    3f5b:	74 2a                	je     0x3f87
    3f5d:	48 8b 45 e8          	mov    -0x18(%rbp),%rax
    3f61:	48 89 c7             	mov    %rax,%rdi
    3f64:	e8 1d 01 00 00       	call   0x4086
    3f69:	48 89 c2             	mov    %rax,%rdx
    3f6c:	48 8b 45 d8          	mov    -0x28(%rbp),%rax
    3f70:	48 89 c6             	mov    %rax,%rsi
    3f73:	48 89 d7             	mov    %rdx,%rdi
    3f76:	e8 1d 01 00 00       	call   0x4098
    3f7b:	48 83 45 d8 20       	addq   $0x20,-0x28(%rbp)
    3f80:	48 83 45 e8 20       	addq   $0x20,-0x18(%rbp)
    3f85:	eb cc                	jmp    0x3f53
    3f87:	48 8b 45 e8          	mov    -0x18(%rbp),%rax
    3f8b:	eb 3b                	jmp    0x3fc8
    3f8d:	f3 0f 1e fa          	endbr64 
    3f91:	48 89 c7             	mov    %rax,%rdi
    3f94:	e8 27 e0 ff ff       	call   0x1fc0
    3f99:	48 8b 55 e8          	mov    -0x18(%rbp),%rdx
    3f9d:	48 8b 45 c8          	mov    -0x38(%rbp),%rax
    3fa1:	48 89 d6             	mov    %rdx,%rsi
    3fa4:	48 89 c7             	mov    %rax,%rdi
    3fa7:	e8 5d 01 00 00       	call   0x4109
    3fac:	e8 1f e0 ff ff       	call   0x1fd0
    3fb1:	f3 0f 1e fa          	endbr64 
    3fb5:	48 89 c3             	mov    %rax,%rbx
    3fb8:	e8 23 e0 ff ff       	call   0x1fe0
    3fbd:	48 89 d8             	mov    %rbx,%rax
    3fc0:	48 89 c7             	mov    %rax,%rdi
    3fc3:	e8 28 de ff ff       	call   0x1df0
    3fc8:	48 83 c4 38          	add    $0x38,%rsp
    3fcc:	5b                   	pop    %rbx
    3fcd:	5d                   	pop    %rbp
    3fce:	c3                   	ret    
    3fcf:	90                   	nop
    3fd0:	f3 0f 1e fa          	endbr64 
    3fd4:	55                   	push   %rbp
    3fd5:	48 89 e5             	mov    %rsp,%rbp
    3fd8:	48 89 7d f8          	mov    %rdi,-0x8(%rbp)
    3fdc:	48 8b 45 f8          	mov    -0x8(%rbp),%rax
    3fe0:	48 8b 00             	mov    (%rax),%rax
    3fe3:	5d                   	pop    %rbp
    3fe4:	c3                   	ret    
    3fe5:	f3 0f 1e fa          	endbr64 
    3fe9:	55                   	push   %rbp
    3fea:	48 89 e5             	mov    %rsp,%rbp
    3fed:	41 54                	push   %r12
    3fef:	53                   	push   %rbx
    3ff0:	48 83 ec 10          	sub    $0x10,%rsp
    3ff4:	48 89 7d e8          	mov    %rdi,-0x18(%rbp)
    3ff8:	48 89 75 e0          	mov    %rsi,-0x20(%rbp)
    3ffc:	48 8b 45 e8          	mov    -0x18(%rbp),%rax
    4000:	48 89 c7             	mov    %rax,%rdi
    4003:	e8 e8 df ff ff       	call   0x1ff0
    4008:	48 89 c3             	mov    %rax,%rbx
    400b:	48 8b 45 e0          	mov    -0x20(%rbp),%rax
    400f:	48 89 c7             	mov    %rax,%rdi
    4012:	e8 d9 df ff ff       	call   0x1ff0
    4017:	48 39 c3             	cmp    %rax,%rbx
    401a:	75 43                	jne    0x405f
    401c:	48 8b 45 e8          	mov    -0x18(%rbp),%rax
    4020:	48 89 c7             	mov    %rax,%rdi
    4023:	e8 c8 df ff ff       	call   0x1ff0
    4028:	49 89 c4             	mov    %rax,%r12
    402b:	48 8b 45 e0          	mov    -0x20(%rbp),%rax
    402f:	48 89 c7             	mov    %rax,%rdi
    4032:	e8 c9 df ff ff       	call   0x2000
    4037:	48 89 c3             	mov    %rax,%rbx
    403a:	48 8b 45 e8          	mov    -0x18(%rbp),%rax
    403e:	48 89 c7             	mov    %rax,%rdi
    4041:	e8 ba df ff ff       	call   0x2000
    4046:	4c 89 e2             	mov    %r12,%rdx
    4049:	48 89 de             	mov    %rbx,%rsi
    404c:	48 89 c7             	mov    %rax,%rdi
    404f:	e8 d4 ef ff ff       	call   0x3028
    4054:	85 c0                	test   %eax,%eax
    4056:	75 07                	jne    0x405f
    4058:	b8 01 00 00 00       	mov    $0x1,%eax
    405d:	eb 05                	jmp    0x4064
    405f:	b8 00 00 00 00       	mov    $0x0,%eax
    4064:	48 83 c4 10          	add    $0x10,%rsp
    4068:	5b                   	pop    %rbx
    4069:	41 5c                	pop    %r12
    406b:	5d                   	pop    %rbp
    406c:	c3                   	ret    
    406d:	90                   	nop
    406e:	f3 0f 1e fa          	endbr64 
    4072:	55                   	push   %rbp
    4073:	48 89 e5             	mov    %rsp,%rbp
    4076:	48 89 7d f8          	mov    %rdi,-0x8(%rbp)
    407a:	48 b8 ff ff ff ff ff 	movabs $0x3ffffffffffffff,%rax
    4081:	ff ff 03 
    4084:	5d                   	pop    %rbp
    4085:	c3                   	ret    
    4086:	f3 0f 1e fa          	endbr64 
    408a:	55                   	push   %rbp
    408b:	48 89 e5             	mov    %rsp,%rbp
    408e:	48 89 7d f8          	mov    %rdi,-0x8(%rbp)
    4092:	48 8b 45 f8          	mov    -0x8(%rbp),%rax
    4096:	5d                   	pop    %rbp
    4097:	c3                   	ret    
    4098:	f3 0f 1e fa          	endbr64 
    409c:	55                   	push   %rbp
    409d:	48 89 e5             	mov    %rsp,%rbp
    40a0:	41 55                	push   %r13
    40a2:	41 54                	push   %r12
    40a4:	53                   	push   %rbx
    40a5:	48 83 ec 18          	sub    $0x18,%rsp
    40a9:	48 89 7d d8          	mov    %rdi,-0x28(%rbp)
    40ad:	48 89 75 d0          	mov    %rsi,-0x30(%rbp)
    40b1:	48 8b 45 d0          	mov    -0x30(%rbp),%rax
    40b5:	48 89 c7             	mov    %rax,%rdi
    40b8:	e8 76 00 00 00       	call   0x4133
    40bd:	49 89 c5             	mov    %rax,%r13
    40c0:	48 8b 5d d8          	mov    -0x28(%rbp),%rbx
    40c4:	48 89 de             	mov    %rbx,%rsi
    40c7:	bf 20 00 00 00       	mov    $0x20,%edi
    40cc:	e8 2e ef ff ff       	call   0x2fff
    40d1:	49 89 c4             	mov    %rax,%r12
    40d4:	4c 89 ee             	mov    %r13,%rsi
    40d7:	4c 89 e7             	mov    %r12,%rdi
    40da:	e8 d1 dd ff ff       	call   0x1eb0
    40df:	eb 1d                	jmp    0x40fe
    40e1:	f3 0f 1e fa          	endbr64 
    40e5:	49 89 c5             	mov    %rax,%r13
    40e8:	48 89 de             	mov    %rbx,%rsi
    40eb:	4c 89 e7             	mov    %r12,%rdi
    40ee:	e8 22 ef ff ff       	call   0x3015
    40f3:	4c 89 e8             	mov    %r13,%rax
    40f6:	48 89 c7             	mov    %rax,%rdi
    40f9:	e8 f2 dc ff ff       	call   0x1df0
    40fe:	48 83 c4 18          	add    $0x18,%rsp
    4102:	5b                   	pop    %rbx
    4103:	41 5c                	pop    %r12
    4105:	41 5d                	pop    %r13
    4107:	5d                   	pop    %rbp
    4108:	c3                   	ret    
    4109:	f3 0f 1e fa          	endbr64 
    410d:	55                   	push   %rbp
    410e:	48 89 e5             	mov    %rsp,%rbp
    4111:	48 83 ec 10          	sub    $0x10,%rsp
    4115:	48 89 7d f8          	mov    %rdi,-0x8(%rbp)
    4119:	48 89 75 f0          	mov    %rsi,-0x10(%rbp)
    411d:	48 8b 55 f0          	mov    -0x10(%rbp),%rdx
    4121:	48 8b 45 f8          	mov    -0x8(%rbp),%rax
    4125:	48 89 d6             	mov    %rdx,%rsi
    4128:	48 89 c7             	mov    %rax,%rdi
    412b:	e8 15 00 00 00       	call   0x4145
    4130:	90                   	nop
    4131:	c9                   	leave  
    4132:	c3                   	ret    
    4133:	f3 0f 1e fa          	endbr64 
    4137:	55                   	push   %rbp
    4138:	48 89 e5             	mov    %rsp,%rbp
    413b:	48 89 7d f8          	mov    %rdi,-0x8(%rbp)
    413f:	48 8b 45 f8          	mov    -0x8(%rbp),%rax
    4143:	5d                   	pop    %rbp
    4144:	c3                   	ret    
    4145:	f3 0f 1e fa          	endbr64 
    4149:	55                   	push   %rbp
    414a:	48 89 e5             	mov    %rsp,%rbp
    414d:	48 83 ec 10          	sub    $0x10,%rsp
    4151:	48 89 7d f8          	mov    %rdi,-0x8(%rbp)
    4155:	48 89 75 f0          	mov    %rsi,-0x10(%rbp)
    4159:	48 8b 45 f8          	mov    -0x8(%rbp),%rax
    415d:	48 3b 45 f0          	cmp    -0x10(%rbp),%rax
    4161:	74 1b                	je     0x417e
    4163:	48 8b 45 f8          	mov    -0x8(%rbp),%rax
    4167:	48 89 c7             	mov    %rax,%rdi
    416a:	e8 17 ff ff ff       	call   0x4086
    416f:	48 89 c7             	mov    %rax,%rdi
    4172:	e8 0a 00 00 00       	call   0x4181
    4177:	48 83 45 f8 20       	addq   $0x20,-0x8(%rbp)
    417c:	eb db                	jmp    0x4159
    417e:	90                   	nop
    417f:	c9                   	leave  
    4180:	c3                   	ret    
    4181:	f3 0f 1e fa          	endbr64 
    4185:	55                   	push   %rbp
    4186:	48 89 e5             	mov    %rsp,%rbp
    4189:	48 83 ec 10          	sub    $0x10,%rsp
    418d:	48 89 7d f8          	mov    %rdi,-0x8(%rbp)
    4191:	48 8b 45 f8          	mov    -0x8(%rbp),%rax
    4195:	48 89 c7             	mov    %rax,%rdi
    4198:	e8 43 dc ff ff       	call   0x1de0
    419d:	90                   	nop
    419e:	c9                   	leave  
    419f:	c3                   	ret    
    41a0:	f3 0f 1e fa          	endbr64 
    41a4:	55                   	push   %rbp
    41a5:	48 89 e5             	mov    %rsp,%rbp
    41a8:	48 83 ec 10          	sub    $0x10,%rsp
    41ac:	48 89 7d f8          	mov    %rdi,-0x8(%rbp)
    41b0:	48 8b 45 f8          	mov    -0x8(%rbp),%rax
    41b4:	48 89 c7             	mov    %rax,%rdi
    41b7:	e8 b6 f7 ff ff       	call   0x3972
    41bc:	48 89 c2             	mov    %rax,%rdx
    41bf:	48 8b 45 f8          	mov    -0x8(%rbp),%rax
    41c3:	48 8b 48 08          	mov    0x8(%rax),%rcx
    41c7:	48 8b 45 f8          	mov    -0x8(%rbp),%rax
    41cb:	48 8b 00             	mov    (%rax),%rax
    41ce:	48 89 ce             	mov    %rcx,%rsi
    41d1:	48 89 c7             	mov    %rax,%rdi
    41d4:	e8 0f 00 00 00       	call   0x41e8
    41d9:	48 8b 45 f8          	mov    -0x8(%rbp),%rax
    41dd:	48 89 c7             	mov    %rax,%rdi
    41e0:	e8 d1 f3 ff ff       	call   0x35b6
    41e5:	90                   	nop
    41e6:	c9                   	leave  
    41e7:	c3                   	ret    
    41e8:	f3 0f 1e fa          	endbr64 
    41ec:	55                   	push   %rbp
    41ed:	48 89 e5             	mov    %rsp,%rbp
    41f0:	48 83 ec 20          	sub    $0x20,%rsp
    41f4:	48 89 7d f8          	mov    %rdi,-0x8(%rbp)
    41f8:	48 89 75 f0          	mov    %rsi,-0x10(%rbp)
    41fc:	48 89 55 e8          	mov    %rdx,-0x18(%rbp)
    4200:	48 8b 55 f0          	mov    -0x10(%rbp),%rdx
    4204:	48 8b 45 f8          	mov    -0x8(%rbp),%rax
    4208:	48 89 d6             	mov    %rdx,%rsi
    420b:	48 89 c7             	mov    %rax,%rdi
    420e:	e8 f6 fe ff ff       	call   0x4109
    4213:	90                   	nop
    4214:	c9                   	leave  
    4215:	c3                   	ret    
    4216:	f3 0f 1e fa          	endbr64 
    421a:	55                   	push   %rbp
    421b:	48 89 e5             	mov    %rsp,%rbp
    421e:	48 8d 35 2c 17 00 00 	lea    0x172c(%rip),%rsi        # 0x5951
    4225:	48 8b 05 f4 4b 00 00 	mov    0x4bf4(%rip),%rax        # 0x8e20
    422c:	48 89 c7             	mov    %rax,%rdi
    422f:	e8 ec db ff ff       	call   0x1e20
    4234:	48 89 c2             	mov    %rax,%rdx
    4237:	48 8b 05 ea 4b 00 00 	mov    0x4bea(%rip),%rax        # 0x8e28
    423e:	48 89 c6             	mov    %rax,%rsi
    4241:	48 89 d7             	mov    %rdx,%rdi
    4244:	e8 e7 db ff ff       	call   0x1e30
    4249:	48 8d 35 18 17 00 00 	lea    0x1718(%rip),%rsi        # 0x5968
    4250:	48 8b 05 c9 4b 00 00 	mov    0x4bc9(%rip),%rax        # 0x8e20
    4257:	48 89 c7             	mov    %rax,%rdi
    425a:	e8 c1 db ff ff       	call   0x1e20
    425f:	48 89 c2             	mov    %rax,%rdx
    4262:	48 8b 05 bf 4b 00 00 	mov    0x4bbf(%rip),%rax        # 0x8e28
    4269:	48 89 c6             	mov    %rax,%rsi
    426c:	48 89 d7             	mov    %rdx,%rdi
    426f:	e8 bc db ff ff       	call   0x1e30
    4274:	48 8d 35 f5 16 00 00 	lea    0x16f5(%rip),%rsi        # 0x5970
    427b:	48 8b 05 9e 4b 00 00 	mov    0x4b9e(%rip),%rax        # 0x8e20
    4282:	48 89 c7             	mov    %rax,%rdi
    4285:	e8 96 db ff ff       	call   0x1e20
    428a:	48 89 c2             	mov    %rax,%rdx
    428d:	48 8b 05 94 4b 00 00 	mov    0x4b94(%rip),%rax        # 0x8e28
    4294:	48 89 c6             	mov    %rax,%rsi
    4297:	48 89 d7             	mov    %rdx,%rdi
    429a:	e8 91 db ff ff       	call   0x1e30
    429f:	48 8d 35 df 16 00 00 	lea    0x16df(%rip),%rsi        # 0x5985
    42a6:	48 8b 05 73 4b 00 00 	mov    0x4b73(%rip),%rax        # 0x8e20
    42ad:	48 89 c7             	mov    %rax,%rdi
    42b0:	e8 6b db ff ff       	call   0x1e20
    42b5:	48 89 c2             	mov    %rax,%rdx
    42b8:	48 8b 05 69 4b 00 00 	mov    0x4b69(%rip),%rax        # 0x8e28
    42bf:	48 89 c6             	mov    %rax,%rsi
    42c2:	48 89 d7             	mov    %rdx,%rdi
    42c5:	e8 66 db ff ff       	call   0x1e30
    42ca:	48 8d 35 cb 16 00 00 	lea    0x16cb(%rip),%rsi        # 0x599c
    42d1:	48 8b 05 48 4b 00 00 	mov    0x4b48(%rip),%rax        # 0x8e20
    42d8:	48 89 c7             	mov    %rax,%rdi
    42db:	e8 40 db ff ff       	call   0x1e20
    42e0:	48 89 c2             	mov    %rax,%rdx
    42e3:	48 8b 05 3e 4b 00 00 	mov    0x4b3e(%rip),%rax        # 0x8e28
    42ea:	48 89 c6             	mov    %rax,%rsi
    42ed:	48 89 d7             	mov    %rdx,%rdi
    42f0:	e8 3b db ff ff       	call   0x1e30
    42f5:	48 8d 35 bc 16 00 00 	lea    0x16bc(%rip),%rsi        # 0x59b8
    42fc:	48 8b 05 1d 4b 00 00 	mov    0x4b1d(%rip),%rax        # 0x8e20
    4303:	48 89 c7             	mov    %rax,%rdi
    4306:	e8 15 db ff ff       	call   0x1e20
    430b:	48 89 c2             	mov    %rax,%rdx
    430e:	48 8b 05 13 4b 00 00 	mov    0x4b13(%rip),%rax        # 0x8e28
    4315:	48 89 c6             	mov    %rax,%rsi
    4318:	48 89 d7             	mov    %rdx,%rdi
    431b:	e8 10 db ff ff       	call   0x1e30
    4320:	48 8d 35 b3 16 00 00 	lea    0x16b3(%rip),%rsi        # 0x59da
    4327:	48 8b 05 f2 4a 00 00 	mov    0x4af2(%rip),%rax        # 0x8e20
    432e:	48 89 c7             	mov    %rax,%rdi
    4331:	e8 ea da ff ff       	call   0x1e20
    4336:	48 89 c2             	mov    %rax,%rdx
    4339:	48 8b 05 e8 4a 00 00 	mov    0x4ae8(%rip),%rax        # 0x8e28
    4340:	48 89 c6             	mov    %rax,%rsi
    4343:	48 89 d7             	mov    %rdx,%rdi
    4346:	e8 e5 da ff ff       	call   0x1e30
    434b:	90                   	nop
    434c:	5d                   	pop    %rbp
    434d:	c3                   	ret    
    434e:	f3 0f 1e fa          	endbr64 
    4352:	55                   	push   %rbp
    4353:	48 89 e5             	mov    %rsp,%rbp
    4356:	48 83 ec 10          	sub    $0x10,%rsp
    435a:	48 8d 35 90 16 00 00 	lea    0x1690(%rip),%rsi        # 0x59f1
    4361:	48 8b 05 b8 4a 00 00 	mov    0x4ab8(%rip),%rax        # 0x8e20
    4368:	48 89 c7             	mov    %rax,%rdi
    436b:	e8 b0 da ff ff       	call   0x1e20
    4370:	48 8d 45 fc          	lea    -0x4(%rbp),%rax
    4374:	48 89 c6             	mov    %rax,%rsi
    4377:	48 8b 05 c2 4a 00 00 	mov    0x4ac2(%rip),%rax        # 0x8e40
    437e:	48 89 c7             	mov    %rax,%rdi
    4381:	e8 8a dc ff ff       	call   0x2010
    4386:	8b 45 fc             	mov    -0x4(%rbp),%eax
    4389:	c9                   	leave  
    438a:	c3                   	ret    
    438b:	f3 0f 1e fa          	endbr64 
    438f:	55                   	push   %rbp
    4390:	48 89 e5             	mov    %rsp,%rbp
    4393:	48 83 ec 10          	sub    $0x10,%rsp
    4397:	48 89 7d f8          	mov    %rdi,-0x8(%rbp)
    439b:	48 8d 05 3e 4d 00 00 	lea    0x4d3e(%rip),%rax        # 0x90e0
    43a2:	48 89 c6             	mov    %rax,%rsi
    43a5:	48 8b 05 94 4a 00 00 	mov    0x4a94(%rip),%rax        # 0x8e40
    43ac:	48 89 c7             	mov    %rax,%rdi
    43af:	e8 6c dc ff ff       	call   0x2020
    43b4:	48 8b 45 f8          	mov    -0x8(%rbp),%rax
    43b8:	48 8d 15 21 4d 00 00 	lea    0x4d21(%rip),%rdx        # 0x90e0
    43bf:	48 89 d6             	mov    %rdx,%rsi
    43c2:	48 89 c7             	mov    %rax,%rdi
    43c5:	e8 e6 da ff ff       	call   0x1eb0
    43ca:	48 8b 45 f8          	mov    -0x8(%rbp),%rax
    43ce:	c9                   	leave  
    43cf:	c3                   	ret    
    43d0:	f3 0f 1e fa          	endbr64 
    43d4:	55                   	push   %rbp
    43d5:	48 89 e5             	mov    %rsp,%rbp
    43d8:	48 8d 35 15 16 00 00 	lea    0x1615(%rip),%rsi        # 0x59f4
    43df:	48 8b 05 62 4a 00 00 	mov    0x4a62(%rip),%rax        # 0x8e48
    43e6:	48 89 c7             	mov    %rax,%rdi
    43e9:	e8 32 da ff ff       	call   0x1e20
    43ee:	48 89 c2             	mov    %rax,%rdx
    43f1:	48 8b 05 30 4a 00 00 	mov    0x4a30(%rip),%rax        # 0x8e28
    43f8:	48 89 c6             	mov    %rax,%rsi
    43fb:	48 89 d7             	mov    %rdx,%rdi
    43fe:	e8 2d da ff ff       	call   0x1e30
    4403:	90                   	nop
    4404:	5d                   	pop    %rbp
    4405:	c3                   	ret    
    4406:	f3 0f 1e fa          	endbr64 
    440a:	55                   	push   %rbp
    440b:	48 89 e5             	mov    %rsp,%rbp
    440e:	48 83 ec 10          	sub    $0x10,%rsp
    4412:	48 89 7d f8          	mov    %rdi,-0x8(%rbp)
    4416:	48 8d 35 de 15 00 00 	lea    0x15de(%rip),%rsi        # 0x59fb
    441d:	48 8b 05 24 4a 00 00 	mov    0x4a24(%rip),%rax        # 0x8e48
    4424:	48 89 c7             	mov    %rax,%rdi
    4427:	e8 f4 d9 ff ff       	call   0x1e20
    442c:	48 89 c2             	mov    %rax,%rdx
    442f:	48 8b 45 f8          	mov    -0x8(%rbp),%rax
    4433:	48 89 c6             	mov    %rax,%rsi
    4436:	48 89 d7             	mov    %rdx,%rdi
    4439:	e8 e2 d9 ff ff       	call   0x1e20
    443e:	48 89 c2             	mov    %rax,%rdx
    4441:	48 8b 05 e0 49 00 00 	mov    0x49e0(%rip),%rax        # 0x8e28
    4448:	48 89 c6             	mov    %rax,%rsi
    444b:	48 89 d7             	mov    %rdx,%rdi
    444e:	e8 dd d9 ff ff       	call   0x1e30
    4453:	90                   	nop
    4454:	c9                   	leave  
    4455:	c3                   	ret    
    4456:	f3 0f 1e fa          	endbr64 
    445a:	55                   	push   %rbp
    445b:	48 89 e5             	mov    %rsp,%rbp
    445e:	48 83 ec 10          	sub    $0x10,%rsp
    4462:	48 89 7d f8          	mov    %rdi,-0x8(%rbp)
    4466:	48 8b 45 f8          	mov    -0x8(%rbp),%rax
    446a:	48 89 c7             	mov    %rax,%rdi
    446d:	e8 fe d9 ff ff       	call   0x1e70
    4472:	48 89 c7             	mov    %rax,%rdi
    4475:	e8 8c ff ff ff       	call   0x4406
    447a:	90                   	nop
    447b:	c9                   	leave  
    447c:	c3                   	ret    
    447d:	f3 0f 1e fa          	endbr64 
    4481:	55                   	push   %rbp
    4482:	48 89 e5             	mov    %rsp,%rbp
    4485:	48 83 ec 10          	sub    $0x10,%rsp
    4489:	89 7d fc             	mov    %edi,-0x4(%rbp)
    448c:	89 75 f8             	mov    %esi,-0x8(%rbp)
    448f:	83 7d fc 01          	cmpl   $0x1,-0x4(%rbp)
    4493:	75 61                	jne    0x44f6
    4495:	81 7d f8 ff ff 00 00 	cmpl   $0xffff,-0x8(%rbp)
    449c:	75 58                	jne    0x44f6
    449e:	48 8d 3d 5b 4c 00 00 	lea    0x4c5b(%rip),%rdi        # 0x9100
    44a5:	e8 66 da ff ff       	call   0x1f10
    44aa:	48 8d 15 57 4b 00 00 	lea    0x4b57(%rip),%rdx        # 0x9008
    44b1:	48 8d 35 48 4c 00 00 	lea    0x4c48(%rip),%rsi        # 0x9100
    44b8:	48 8b 05 71 49 00 00 	mov    0x4971(%rip),%rax        # 0x8e30
    44bf:	48 89 c7             	mov    %rax,%rdi
    44c2:	e8 59 da ff ff       	call   0x1f20
    44c7:	48 8d 05 12 4c 00 00 	lea    0x4c12(%rip),%rax        # 0x90e0
    44ce:	48 89 c7             	mov    %rax,%rdi
    44d1:	e8 5a db ff ff       	call   0x2030
    44d6:	48 8d 15 2b 4b 00 00 	lea    0x4b2b(%rip),%rdx        # 0x9008
    44dd:	48 8d 05 fc 4b 00 00 	lea    0x4bfc(%rip),%rax        # 0x90e0
    44e4:	48 89 c6             	mov    %rax,%rsi
    44e7:	48 8b 05 4a 49 00 00 	mov    0x494a(%rip),%rax        # 0x8e38
    44ee:	48 89 c7             	mov    %rax,%rdi
    44f1:	e8 2a da ff ff       	call   0x1f20
    44f6:	90                   	nop
    44f7:	c9                   	leave  
    44f8:	c3                   	ret    
    44f9:	f3 0f 1e fa          	endbr64 
    44fd:	55                   	push   %rbp
    44fe:	48 89 e5             	mov    %rsp,%rbp
    4501:	be ff ff 00 00       	mov    $0xffff,%esi
    4506:	bf 01 00 00 00       	mov    $0x1,%edi
    450b:	e8 6d ff ff ff       	call   0x447d
    4510:	5d                   	pop    %rbp
    4511:	c3                   	ret    
    4512:	55                   	push   %rbp
    4513:	48 89 e5             	mov    %rsp,%rbp
    4516:	48 83 ec 10          	sub    $0x10,%rsp
    451a:	89 f8                	mov    %edi,%eax
    451c:	88 45 fc             	mov    %al,-0x4(%rbp)
    451f:	0f b6 45 fc          	movzbl -0x4(%rbp),%eax
    4523:	89 c7                	mov    %eax,%edi
    4525:	e8 16 db ff ff       	call   0x2040
    452a:	85 c0                	test   %eax,%eax
    452c:	75 0c                	jne    0x453a
    452e:	80 7d fc 2b          	cmpb   $0x2b,-0x4(%rbp)
    4532:	74 06                	je     0x453a
    4534:	80 7d fc 2f          	cmpb   $0x2f,-0x4(%rbp)
    4538:	75 07                	jne    0x4541
    453a:	b8 01 00 00 00       	mov    $0x1,%eax
    453f:	eb 05                	jmp    0x4546
    4541:	b8 00 00 00 00       	mov    $0x0,%eax
    4546:	c9                   	leave  
    4547:	c3                   	ret    
    4548:	f3 0f 1e fa          	endbr64 
    454c:	55                   	push   %rbp
    454d:	48 89 e5             	mov    %rsp,%rbp
    4550:	53                   	push   %rbx
    4551:	48 83 ec 38          	sub    $0x38,%rsp
    4555:	48 89 7d d8          	mov    %rdi,-0x28(%rbp)
    4559:	48 89 75 d0          	mov    %rsi,-0x30(%rbp)
    455d:	89 55 cc             	mov    %edx,-0x34(%rbp)
    4560:	48 8b 45 d8          	mov    -0x28(%rbp),%rax
    4564:	48 89 c7             	mov    %rax,%rdi
    4567:	e8 c4 da ff ff       	call   0x2030
    456c:	c7 45 e4 00 00 00 00 	movl   $0x0,-0x1c(%rbp)
    4573:	c7 45 e8 00 00 00 00 	movl   $0x0,-0x18(%rbp)
    457a:	8b 45 cc             	mov    -0x34(%rbp),%eax
    457d:	8d 50 ff             	lea    -0x1(%rax),%edx
    4580:	89 55 cc             	mov    %edx,-0x34(%rbp)
    4583:	85 c0                	test   %eax,%eax
    4585:	0f 95 c0             	setne  %al
    4588:	84 c0                	test   %al,%al
    458a:	0f 84 be 00 00 00    	je     0x464e
    4590:	48 8b 45 d0          	mov    -0x30(%rbp),%rax
    4594:	48 8d 50 01          	lea    0x1(%rax),%rdx
    4598:	48 89 55 d0          	mov    %rdx,-0x30(%rbp)
    459c:	8b 55 e4             	mov    -0x1c(%rbp),%edx
    459f:	8d 4a 01             	lea    0x1(%rdx),%ecx
    45a2:	89 4d e4             	mov    %ecx,-0x1c(%rbp)
    45a5:	0f b6 08             	movzbl (%rax),%ecx
    45a8:	48 63 c2             	movslq %edx,%rax
    45ab:	88 4c 05 e1          	mov    %cl,-0x1f(%rbp,%rax,1)
    45af:	83 7d e4 03          	cmpl   $0x3,-0x1c(%rbp)
    45b3:	75 c5                	jne    0x457a
    45b5:	0f b6 45 e1          	movzbl -0x1f(%rbp),%eax
    45b9:	c0 e8 02             	shr    $0x2,%al
    45bc:	88 45 ec             	mov    %al,-0x14(%rbp)
    45bf:	0f b6 45 e1          	movzbl -0x1f(%rbp),%eax
    45c3:	0f b6 c0             	movzbl %al,%eax
    45c6:	c1 e0 04             	shl    $0x4,%eax
    45c9:	83 e0 30             	and    $0x30,%eax
    45cc:	89 c2                	mov    %eax,%edx
    45ce:	0f b6 45 e2          	movzbl -0x1e(%rbp),%eax
    45d2:	c0 e8 04             	shr    $0x4,%al
    45d5:	01 d0                	add    %edx,%eax
    45d7:	88 45 ed             	mov    %al,-0x13(%rbp)
    45da:	0f b6 45 e2          	movzbl -0x1e(%rbp),%eax
    45de:	0f b6 c0             	movzbl %al,%eax
    45e1:	c1 e0 02             	shl    $0x2,%eax
    45e4:	83 e0 3c             	and    $0x3c,%eax
    45e7:	89 c2                	mov    %eax,%edx
    45e9:	0f b6 45 e3          	movzbl -0x1d(%rbp),%eax
    45ed:	c0 e8 06             	shr    $0x6,%al
    45f0:	01 d0                	add    %edx,%eax
    45f2:	88 45 ee             	mov    %al,-0x12(%rbp)
    45f5:	0f b6 45 e3          	movzbl -0x1d(%rbp),%eax
    45f9:	83 e0 3f             	and    $0x3f,%eax
    45fc:	88 45 ef             	mov    %al,-0x11(%rbp)
    45ff:	c7 45 e4 00 00 00 00 	movl   $0x0,-0x1c(%rbp)
    4606:	83 7d e4 03          	cmpl   $0x3,-0x1c(%rbp)
    460a:	7f 36                	jg     0x4642
    460c:	8b 45 e4             	mov    -0x1c(%rbp),%eax
    460f:	48 98                	cltq   
    4611:	0f b6 44 05 ec       	movzbl -0x14(%rbp,%rax,1),%eax
    4616:	0f b6 c0             	movzbl %al,%eax
    4619:	48 89 c6             	mov    %rax,%rsi
    461c:	48 8d 3d 1d 4b 00 00 	lea    0x4b1d(%rip),%rdi        # 0x9140
    4623:	e8 28 da ff ff       	call   0x2050
    4628:	0f b6 00             	movzbl (%rax),%eax
    462b:	0f be d0             	movsbl %al,%edx
    462e:	48 8b 45 d8          	mov    -0x28(%rbp),%rax
    4632:	89 d6                	mov    %edx,%esi
    4634:	48 89 c7             	mov    %rax,%rdi
    4637:	e8 24 da ff ff       	call   0x2060
    463c:	83 45 e4 01          	addl   $0x1,-0x1c(%rbp)
    4640:	eb c4                	jmp    0x4606
    4642:	c7 45 e4 00 00 00 00 	movl   $0x0,-0x1c(%rbp)
    4649:	e9 2c ff ff ff       	jmp    0x457a
    464e:	83 7d e4 00          	cmpl   $0x0,-0x1c(%rbp)
    4652:	0f 84 ef 00 00 00    	je     0x4747
    4658:	8b 45 e4             	mov    -0x1c(%rbp),%eax
    465b:	89 45 e8             	mov    %eax,-0x18(%rbp)
    465e:	83 7d e8 02          	cmpl   $0x2,-0x18(%rbp)
    4662:	7f 10                	jg     0x4674
    4664:	8b 45 e8             	mov    -0x18(%rbp),%eax
    4667:	48 98                	cltq   
    4669:	c6 44 05 e1 00       	movb   $0x0,-0x1f(%rbp,%rax,1)
    466e:	83 45 e8 01          	addl   $0x1,-0x18(%rbp)
    4672:	eb ea                	jmp    0x465e
    4674:	0f b6 45 e1          	movzbl -0x1f(%rbp),%eax
    4678:	c0 e8 02             	shr    $0x2,%al
    467b:	88 45 ec             	mov    %al,-0x14(%rbp)
    467e:	0f b6 45 e1          	movzbl -0x1f(%rbp),%eax
    4682:	0f b6 c0             	movzbl %al,%eax
    4685:	c1 e0 04             	shl    $0x4,%eax
    4688:	83 e0 30             	and    $0x30,%eax
    468b:	89 c2                	mov    %eax,%edx
    468d:	0f b6 45 e2          	movzbl -0x1e(%rbp),%eax
    4691:	c0 e8 04             	shr    $0x4,%al
    4694:	01 d0                	add    %edx,%eax
    4696:	88 45 ed             	mov    %al,-0x13(%rbp)
    4699:	0f b6 45 e2          	movzbl -0x1e(%rbp),%eax
    469d:	0f b6 c0             	movzbl %al,%eax
    46a0:	c1 e0 02             	shl    $0x2,%eax
    46a3:	83 e0 3c             	and    $0x3c,%eax
    46a6:	89 c2                	mov    %eax,%edx
    46a8:	0f b6 45 e3          	movzbl -0x1d(%rbp),%eax
    46ac:	c0 e8 06             	shr    $0x6,%al
    46af:	01 d0                	add    %edx,%eax
    46b1:	88 45 ee             	mov    %al,-0x12(%rbp)
    46b4:	0f b6 45 e3          	movzbl -0x1d(%rbp),%eax
    46b8:	83 e0 3f             	and    $0x3f,%eax
    46bb:	88 45 ef             	mov    %al,-0x11(%rbp)
    46be:	c7 45 e8 00 00 00 00 	movl   $0x0,-0x18(%rbp)
    46c5:	8b 45 e4             	mov    -0x1c(%rbp),%eax
    46c8:	3b 45 e8             	cmp    -0x18(%rbp),%eax
    46cb:	7c 36                	jl     0x4703
    46cd:	8b 45 e8             	mov    -0x18(%rbp),%eax
    46d0:	48 98                	cltq   
    46d2:	0f b6 44 05 ec       	movzbl -0x14(%rbp,%rax,1),%eax
    46d7:	0f b6 c0             	movzbl %al,%eax
    46da:	48 89 c6             	mov    %rax,%rsi
    46dd:	48 8d 3d 5c 4a 00 00 	lea    0x4a5c(%rip),%rdi        # 0x9140
    46e4:	e8 67 d9 ff ff       	call   0x2050
    46e9:	0f b6 00             	movzbl (%rax),%eax
    46ec:	0f be d0             	movsbl %al,%edx
    46ef:	48 8b 45 d8          	mov    -0x28(%rbp),%rax
    46f3:	89 d6                	mov    %edx,%esi
    46f5:	48 89 c7             	mov    %rax,%rdi
    46f8:	e8 63 d9 ff ff       	call   0x2060
    46fd:	83 45 e8 01          	addl   $0x1,-0x18(%rbp)
    4701:	eb c2                	jmp    0x46c5
    4703:	8b 45 e4             	mov    -0x1c(%rbp),%eax
    4706:	8d 50 01             	lea    0x1(%rax),%edx
    4709:	89 55 e4             	mov    %edx,-0x1c(%rbp)
    470c:	83 f8 02             	cmp    $0x2,%eax
    470f:	0f 9e c0             	setle  %al
    4712:	84 c0                	test   %al,%al
    4714:	74 31                	je     0x4747
    4716:	48 8b 45 d8          	mov    -0x28(%rbp),%rax
    471a:	be 3d 00 00 00       	mov    $0x3d,%esi
    471f:	48 89 c7             	mov    %rax,%rdi
    4722:	e8 39 d9 ff ff       	call   0x2060
    4727:	eb da                	jmp    0x4703
    4729:	f3 0f 1e fa          	endbr64 
    472d:	48 89 c3             	mov    %rax,%rbx
    4730:	48 8b 45 d8          	mov    -0x28(%rbp),%rax
    4734:	48 89 c7             	mov    %rax,%rdi
    4737:	e8 a4 d6 ff ff       	call   0x1de0
    473c:	48 89 d8             	mov    %rbx,%rax
    473f:	48 89 c7             	mov    %rax,%rdi
    4742:	e8 a9 d6 ff ff       	call   0x1df0
    4747:	90                   	nop
    4748:	48 8b 45 d8          	mov    -0x28(%rbp),%rax
    474c:	48 83 c4 38          	add    $0x38,%rsp
    4750:	5b                   	pop    %rbx
    4751:	5d                   	pop    %rbp
    4752:	c3                   	ret    
    4753:	f3 0f 1e fa          	endbr64 
    4757:	55                   	push   %rbp
    4758:	48 89 e5             	mov    %rsp,%rbp
    475b:	53                   	push   %rbx
    475c:	48 83 ec 38          	sub    $0x38,%rsp
    4760:	48 89 7d c8          	mov    %rdi,-0x38(%rbp)
    4764:	48 89 75 c0          	mov    %rsi,-0x40(%rbp)
    4768:	48 8b 45 c0          	mov    -0x40(%rbp),%rax
    476c:	48 89 c7             	mov    %rax,%rdi
    476f:	e8 7c d8 ff ff       	call   0x1ff0
    4774:	89 45 dc             	mov    %eax,-0x24(%rbp)
    4777:	c7 45 e0 00 00 00 00 	movl   $0x0,-0x20(%rbp)
    477e:	c7 45 e4 00 00 00 00 	movl   $0x0,-0x1c(%rbp)
    4785:	c7 45 e8 00 00 00 00 	movl   $0x0,-0x18(%rbp)
    478c:	48 8b 45 c8          	mov    -0x38(%rbp),%rax
    4790:	48 89 c7             	mov    %rax,%rdi
    4793:	e8 76 03 00 00       	call   0x4b0e
    4798:	8b 45 dc             	mov    -0x24(%rbp),%eax
    479b:	8d 50 ff             	lea    -0x1(%rax),%edx
    479e:	89 55 dc             	mov    %edx,-0x24(%rbp)
    47a1:	85 c0                	test   %eax,%eax
    47a3:	74 49                	je     0x47ee
    47a5:	8b 45 e8             	mov    -0x18(%rbp),%eax
    47a8:	48 63 d0             	movslq %eax,%rdx
    47ab:	48 8b 45 c0          	mov    -0x40(%rbp),%rax
    47af:	48 89 d6             	mov    %rdx,%rsi
    47b2:	48 89 c7             	mov    %rax,%rdi
    47b5:	e8 96 d8 ff ff       	call   0x2050
    47ba:	0f b6 00             	movzbl (%rax),%eax
    47bd:	3c 3d                	cmp    $0x3d,%al
    47bf:	74 2d                	je     0x47ee
    47c1:	8b 45 e8             	mov    -0x18(%rbp),%eax
    47c4:	48 63 d0             	movslq %eax,%rdx
    47c7:	48 8b 45 c0          	mov    -0x40(%rbp),%rax
    47cb:	48 89 d6             	mov    %rdx,%rsi
    47ce:	48 89 c7             	mov    %rax,%rdi
    47d1:	e8 7a d8 ff ff       	call   0x2050
    47d6:	0f b6 00             	movzbl (%rax),%eax
    47d9:	0f b6 c0             	movzbl %al,%eax
    47dc:	89 c7                	mov    %eax,%edi
    47de:	e8 2f fd ff ff       	call   0x4512
    47e3:	84 c0                	test   %al,%al
    47e5:	74 07                	je     0x47ee
    47e7:	b8 01 00 00 00       	mov    $0x1,%eax
    47ec:	eb 05                	jmp    0x47f3
    47ee:	b8 00 00 00 00       	mov    $0x0,%eax
    47f3:	84 c0                	test   %al,%al
    47f5:	0f 84 ff 00 00 00    	je     0x48fa
    47fb:	8b 45 e8             	mov    -0x18(%rbp),%eax
    47fe:	48 63 d0             	movslq %eax,%rdx
    4801:	48 8b 45 c0          	mov    -0x40(%rbp),%rax
    4805:	48 89 d6             	mov    %rdx,%rsi
    4808:	48 89 c7             	mov    %rax,%rdi
    480b:	e8 40 d8 ff ff       	call   0x2050
    4810:	0f b6 08             	movzbl (%rax),%ecx
    4813:	8b 45 e0             	mov    -0x20(%rbp),%eax
    4816:	8d 50 01             	lea    0x1(%rax),%edx
    4819:	89 55 e0             	mov    %edx,-0x20(%rbp)
    481c:	89 ca                	mov    %ecx,%edx
    481e:	48 98                	cltq   
    4820:	88 54 05 ec          	mov    %dl,-0x14(%rbp,%rax,1)
    4824:	83 45 e8 01          	addl   $0x1,-0x18(%rbp)
    4828:	83 7d e0 04          	cmpl   $0x4,-0x20(%rbp)
    482c:	0f 85 66 ff ff ff    	jne    0x4798
    4832:	c7 45 e0 00 00 00 00 	movl   $0x0,-0x20(%rbp)
    4839:	83 7d e0 03          	cmpl   $0x3,-0x20(%rbp)
    483d:	7f 31                	jg     0x4870
    483f:	8b 45 e0             	mov    -0x20(%rbp),%eax
    4842:	48 98                	cltq   
    4844:	0f b6 44 05 ec       	movzbl -0x14(%rbp,%rax,1),%eax
    4849:	0f be c0             	movsbl %al,%eax
    484c:	ba 00 00 00 00       	mov    $0x0,%edx
    4851:	89 c6                	mov    %eax,%esi
    4853:	48 8d 3d e6 48 00 00 	lea    0x48e6(%rip),%rdi        # 0x9140
    485a:	e8 11 d8 ff ff       	call   0x2070
    485f:	89 c2                	mov    %eax,%edx
    4861:	8b 45 e0             	mov    -0x20(%rbp),%eax
    4864:	48 98                	cltq   
    4866:	88 54 05 ec          	mov    %dl,-0x14(%rbp,%rax,1)
    486a:	83 45 e0 01          	addl   $0x1,-0x20(%rbp)
    486e:	eb c9                	jmp    0x4839
    4870:	0f b6 45 ec          	movzbl -0x14(%rbp),%eax
    4874:	8d 14 85 00 00 00 00 	lea    0x0(,%rax,4),%edx
    487b:	0f b6 45 ed          	movzbl -0x13(%rbp),%eax
    487f:	0f b6 c0             	movzbl %al,%eax
    4882:	c1 f8 04             	sar    $0x4,%eax
    4885:	83 e0 03             	and    $0x3,%eax
    4888:	01 d0                	add    %edx,%eax
    488a:	88 45 d9             	mov    %al,-0x27(%rbp)
    488d:	0f b6 45 ed          	movzbl -0x13(%rbp),%eax
    4891:	0f b6 c0             	movzbl %al,%eax
    4894:	c1 e0 04             	shl    $0x4,%eax
    4897:	89 c2                	mov    %eax,%edx
    4899:	0f b6 45 ee          	movzbl -0x12(%rbp),%eax
    489d:	0f b6 c0             	movzbl %al,%eax
    48a0:	c1 f8 02             	sar    $0x2,%eax
    48a3:	83 e0 0f             	and    $0xf,%eax
    48a6:	01 d0                	add    %edx,%eax
    48a8:	88 45 da             	mov    %al,-0x26(%rbp)
    48ab:	0f b6 45 ee          	movzbl -0x12(%rbp),%eax
    48af:	0f b6 c0             	movzbl %al,%eax
    48b2:	c1 e0 06             	shl    $0x6,%eax
    48b5:	89 c2                	mov    %eax,%edx
    48b7:	0f b6 45 ef          	movzbl -0x11(%rbp),%eax
    48bb:	01 d0                	add    %edx,%eax
    48bd:	88 45 db             	mov    %al,-0x25(%rbp)
    48c0:	c7 45 e0 00 00 00 00 	movl   $0x0,-0x20(%rbp)
    48c7:	83 7d e0 02          	cmpl   $0x2,-0x20(%rbp)
    48cb:	7f 21                	jg     0x48ee
    48cd:	48 8d 55 d9          	lea    -0x27(%rbp),%rdx
    48d1:	8b 45 e0             	mov    -0x20(%rbp),%eax
    48d4:	48 98                	cltq   
    48d6:	48 01 c2             	add    %rax,%rdx
    48d9:	48 8b 45 c8          	mov    -0x38(%rbp),%rax
    48dd:	48 89 d6             	mov    %rdx,%rsi
    48e0:	48 89 c7             	mov    %rax,%rdi
    48e3:	e8 72 02 00 00       	call   0x4b5a
    48e8:	83 45 e0 01          	addl   $0x1,-0x20(%rbp)
    48ec:	eb d9                	jmp    0x48c7
    48ee:	c7 45 e0 00 00 00 00 	movl   $0x0,-0x20(%rbp)
    48f5:	e9 9e fe ff ff       	jmp    0x4798
    48fa:	83 7d e0 00          	cmpl   $0x0,-0x20(%rbp)
    48fe:	0f 84 fb 00 00 00    	je     0x49ff
    4904:	8b 45 e0             	mov    -0x20(%rbp),%eax
    4907:	89 45 e4             	mov    %eax,-0x1c(%rbp)
    490a:	83 7d e4 03          	cmpl   $0x3,-0x1c(%rbp)
    490e:	7f 10                	jg     0x4920
    4910:	8b 45 e4             	mov    -0x1c(%rbp),%eax
    4913:	48 98                	cltq   
    4915:	c6 44 05 ec 00       	movb   $0x0,-0x14(%rbp,%rax,1)
    491a:	83 45 e4 01          	addl   $0x1,-0x1c(%rbp)
    491e:	eb ea                	jmp    0x490a
    4920:	c7 45 e4 00 00 00 00 	movl   $0x0,-0x1c(%rbp)
    4927:	83 7d e4 03          	cmpl   $0x3,-0x1c(%rbp)
    492b:	7f 31                	jg     0x495e
    492d:	8b 45 e4             	mov    -0x1c(%rbp),%eax
    4930:	48 98                	cltq   
    4932:	0f b6 44 05 ec       	movzbl -0x14(%rbp,%rax,1),%eax
    4937:	0f be c0             	movsbl %al,%eax
    493a:	ba 00 00 00 00       	mov    $0x0,%edx
    493f:	89 c6                	mov    %eax,%esi
    4941:	48 8d 3d f8 47 00 00 	lea    0x47f8(%rip),%rdi        # 0x9140
    4948:	e8 23 d7 ff ff       	call   0x2070
    494d:	89 c2                	mov    %eax,%edx
    494f:	8b 45 e4             	mov    -0x1c(%rbp),%eax
    4952:	48 98                	cltq   
    4954:	88 54 05 ec          	mov    %dl,-0x14(%rbp,%rax,1)
    4958:	83 45 e4 01          	addl   $0x1,-0x1c(%rbp)
    495c:	eb c9                	jmp    0x4927
    495e:	0f b6 45 ec          	movzbl -0x14(%rbp),%eax
    4962:	8d 14 85 00 00 00 00 	lea    0x0(,%rax,4),%edx
    4969:	0f b6 45 ed          	movzbl -0x13(%rbp),%eax
    496d:	0f b6 c0             	movzbl %al,%eax
    4970:	c1 f8 04             	sar    $0x4,%eax
    4973:	83 e0 03             	and    $0x3,%eax
    4976:	01 d0                	add    %edx,%eax
    4978:	88 45 d9             	mov    %al,-0x27(%rbp)
    497b:	0f b6 45 ed          	movzbl -0x13(%rbp),%eax
    497f:	0f b6 c0             	movzbl %al,%eax
    4982:	c1 e0 04             	shl    $0x4,%eax
    4985:	89 c2                	mov    %eax,%edx
    4987:	0f b6 45 ee          	movzbl -0x12(%rbp),%eax
    498b:	0f b6 c0             	movzbl %al,%eax
    498e:	c1 f8 02             	sar    $0x2,%eax
    4991:	83 e0 0f             	and    $0xf,%eax
    4994:	01 d0                	add    %edx,%eax
    4996:	88 45 da             	mov    %al,-0x26(%rbp)
    4999:	0f b6 45 ee          	movzbl -0x12(%rbp),%eax
    499d:	0f b6 c0             	movzbl %al,%eax
    49a0:	c1 e0 06             	shl    $0x6,%eax
    49a3:	89 c2                	mov    %eax,%edx
    49a5:	0f b6 45 ef          	movzbl -0x11(%rbp),%eax
    49a9:	01 d0                	add    %edx,%eax
    49ab:	88 45 db             	mov    %al,-0x25(%rbp)
    49ae:	c7 45 e4 00 00 00 00 	movl   $0x0,-0x1c(%rbp)
    49b5:	8b 45 e0             	mov    -0x20(%rbp),%eax
    49b8:	83 e8 01             	sub    $0x1,%eax
    49bb:	39 45 e4             	cmp    %eax,-0x1c(%rbp)
    49be:	7d 3f                	jge    0x49ff
    49c0:	48 8d 55 d9          	lea    -0x27(%rbp),%rdx
    49c4:	8b 45 e4             	mov    -0x1c(%rbp),%eax
    49c7:	48 98                	cltq   
    49c9:	48 01 c2             	add    %rax,%rdx
    49cc:	48 8b 45 c8          	mov    -0x38(%rbp),%rax
    49d0:	48 89 d6             	mov    %rdx,%rsi
    49d3:	48 89 c7             	mov    %rax,%rdi
    49d6:	e8 7f 01 00 00       	call   0x4b5a
    49db:	83 45 e4 01          	addl   $0x1,-0x1c(%rbp)
    49df:	eb d4                	jmp    0x49b5
    49e1:	f3 0f 1e fa          	endbr64 
    49e5:	48 89 c3             	mov    %rax,%rbx
    49e8:	48 8b 45 c8          	mov    -0x38(%rbp),%rax
    49ec:	48 89 c7             	mov    %rax,%rdi
    49ef:	e8 4c ea ff ff       	call   0x3440
    49f4:	48 89 d8             	mov    %rbx,%rax
    49f7:	48 89 c7             	mov    %rax,%rdi
    49fa:	e8 f1 d3 ff ff       	call   0x1df0
    49ff:	90                   	nop
    4a00:	48 8b 45 c8          	mov    -0x38(%rbp),%rax
    4a04:	48 83 c4 38          	add    $0x38,%rsp
    4a08:	5b                   	pop    %rbx
    4a09:	5d                   	pop    %rbp
    4a0a:	c3                   	ret    
    4a0b:	f3 0f 1e fa          	endbr64 
    4a0f:	55                   	push   %rbp
    4a10:	48 89 e5             	mov    %rsp,%rbp
    4a13:	53                   	push   %rbx
    4a14:	48 83 ec 28          	sub    $0x28,%rsp
    4a18:	89 7d dc             	mov    %edi,-0x24(%rbp)
    4a1b:	89 75 d8             	mov    %esi,-0x28(%rbp)
    4a1e:	83 7d dc 01          	cmpl   $0x1,-0x24(%rbp)
    4a22:	0f 85 a5 00 00 00    	jne    0x4acd
    4a28:	81 7d d8 ff ff 00 00 	cmpl   $0xffff,-0x28(%rbp)
    4a2f:	0f 85 98 00 00 00    	jne    0x4acd
    4a35:	48 8d 3d e4 46 00 00 	lea    0x46e4(%rip),%rdi        # 0x9120
    4a3c:	e8 cf d4 ff ff       	call   0x1f10
    4a41:	48 8d 15 c0 45 00 00 	lea    0x45c0(%rip),%rdx        # 0x9008
    4a48:	48 8d 35 d1 46 00 00 	lea    0x46d1(%rip),%rsi        # 0x9120
    4a4f:	48 8b 05 da 43 00 00 	mov    0x43da(%rip),%rax        # 0x8e30
    4a56:	48 89 c7             	mov    %rax,%rdi
    4a59:	e8 c2 d4 ff ff       	call   0x1f20
    4a5e:	48 8d 45 ef          	lea    -0x11(%rbp),%rax
    4a62:	48 89 c7             	mov    %rax,%rdi
    4a65:	e8 06 d3 ff ff       	call   0x1d70
    4a6a:	48 8d 45 ef          	lea    -0x11(%rbp),%rax
    4a6e:	48 89 c2             	mov    %rax,%rdx
    4a71:	48 8d 35 b0 0f 00 00 	lea    0xfb0(%rip),%rsi        # 0x5a28
    4a78:	48 8d 3d c1 46 00 00 	lea    0x46c1(%rip),%rdi        # 0x9140
    4a7f:	e8 fc d2 ff ff       	call   0x1d80
    4a84:	48 8d 45 ef          	lea    -0x11(%rbp),%rax
    4a88:	48 89 c7             	mov    %rax,%rdi
    4a8b:	e8 00 d3 ff ff       	call   0x1d90
    4a90:	48 8d 15 71 45 00 00 	lea    0x4571(%rip),%rdx        # 0x9008
    4a97:	48 8d 35 a2 46 00 00 	lea    0x46a2(%rip),%rsi        # 0x9140
    4a9e:	48 8b 05 93 43 00 00 	mov    0x4393(%rip),%rax        # 0x8e38
    4aa5:	48 89 c7             	mov    %rax,%rdi
    4aa8:	e8 73 d4 ff ff       	call   0x1f20
    4aad:	eb 1e                	jmp    0x4acd
    4aaf:	f3 0f 1e fa          	endbr64 
    4ab3:	48 89 c3             	mov    %rax,%rbx
    4ab6:	48 8d 45 ef          	lea    -0x11(%rbp),%rax
    4aba:	48 89 c7             	mov    %rax,%rdi
    4abd:	e8 ce d2 ff ff       	call   0x1d90
    4ac2:	48 89 d8             	mov    %rbx,%rax
    4ac5:	48 89 c7             	mov    %rax,%rdi
    4ac8:	e8 23 d3 ff ff       	call   0x1df0
    4acd:	48 83 c4 28          	add    $0x28,%rsp
    4ad1:	5b                   	pop    %rbx
    4ad2:	5d                   	pop    %rbp
    4ad3:	c3                   	ret    
    4ad4:	f3 0f 1e fa          	endbr64 
    4ad8:	55                   	push   %rbp
    4ad9:	48 89 e5             	mov    %rsp,%rbp
    4adc:	be ff ff 00 00       	mov    $0xffff,%esi
    4ae1:	bf 01 00 00 00       	mov    $0x1,%edi
    4ae6:	e8 20 ff ff ff       	call   0x4a0b
    4aeb:	5d                   	pop    %rbp
    4aec:	c3                   	ret    
    4aed:	90                   	nop
    4aee:	f3 0f 1e fa          	endbr64 
    4af2:	55                   	push   %rbp
    4af3:	48 89 e5             	mov    %rsp,%rbp
    4af6:	48 83 ec 10          	sub    $0x10,%rsp
    4afa:	48 89 7d f8          	mov    %rdi,-0x8(%rbp)
    4afe:	48 8b 45 f8          	mov    -0x8(%rbp),%rax
    4b02:	48 89 c7             	mov    %rax,%rdi
    4b05:	e8 24 00 00 00       	call   0x4b2e
    4b0a:	90                   	nop
    4b0b:	c9                   	leave  
    4b0c:	c3                   	ret    
    4b0d:	90                   	nop
    4b0e:	f3 0f 1e fa          	endbr64 
    4b12:	55                   	push   %rbp
    4b13:	48 89 e5             	mov    %rsp,%rbp
    4b16:	48 83 ec 10          	sub    $0x10,%rsp
    4b1a:	48 89 7d f8          	mov    %rdi,-0x8(%rbp)
    4b1e:	48 8b 45 f8          	mov    -0x8(%rbp),%rax
    4b22:	48 89 c7             	mov    %rax,%rdi
    4b25:	e8 c4 ff ff ff       	call   0x4aee
    4b2a:	90                   	nop
    4b2b:	c9                   	leave  
    4b2c:	c3                   	ret    
    4b2d:	90                   	nop
    4b2e:	f3 0f 1e fa          	endbr64 
    4b32:	55                   	push   %rbp
    4b33:	48 89 e5             	mov    %rsp,%rbp
    4b36:	48 83 ec 10          	sub    $0x10,%rsp
    4b3a:	48 89 7d f8          	mov    %rdi,-0x8(%rbp)
    4b3e:	48 8b 45 f8          	mov    -0x8(%rbp),%rax
    4b42:	48 89 c7             	mov    %rax,%rdi
    4b45:	e8 90 00 00 00       	call   0x4bda
    4b4a:	48 8b 45 f8          	mov    -0x8(%rbp),%rax
    4b4e:	48 89 c7             	mov    %rax,%rdi
    4b51:	e8 a4 00 00 00       	call   0x4bfa
    4b56:	90                   	nop
    4b57:	c9                   	leave  
    4b58:	c3                   	ret    
    4b59:	90                   	nop
    4b5a:	f3 0f 1e fa          	endbr64 
    4b5e:	55                   	push   %rbp
    4b5f:	48 89 e5             	mov    %rsp,%rbp
    4b62:	48 83 ec 10          	sub    $0x10,%rsp
    4b66:	48 89 7d f8          	mov    %rdi,-0x8(%rbp)
    4b6a:	48 89 75 f0          	mov    %rsi,-0x10(%rbp)
    4b6e:	48 8b 45 f8          	mov    -0x8(%rbp),%rax
    4b72:	48 8b 50 08          	mov    0x8(%rax),%rdx
    4b76:	48 8b 45 f8          	mov    -0x8(%rbp),%rax
    4b7a:	48 8b 40 10          	mov    0x10(%rax),%rax
    4b7e:	48 39 c2             	cmp    %rax,%rdx
    4b81:	74 31                	je     0x4bb4
    4b83:	48 8b 45 f8          	mov    -0x8(%rbp),%rax
    4b87:	48 8b 48 08          	mov    0x8(%rax),%rcx
    4b8b:	48 8b 45 f8          	mov    -0x8(%rbp),%rax
    4b8f:	48 8b 55 f0          	mov    -0x10(%rbp),%rdx
    4b93:	48 89 ce             	mov    %rcx,%rsi
    4b96:	48 89 c7             	mov    %rax,%rdi
    4b99:	e8 8e 00 00 00       	call   0x4c2c
    4b9e:	48 8b 45 f8          	mov    -0x8(%rbp),%rax
    4ba2:	48 8b 40 08          	mov    0x8(%rax),%rax
    4ba6:	48 8d 50 01          	lea    0x1(%rax),%rdx
    4baa:	48 8b 45 f8          	mov    -0x8(%rbp),%rax
    4bae:	48 89 50 08          	mov    %rdx,0x8(%rax)
    4bb2:	eb 22                	jmp    0x4bd6
    4bb4:	48 8b 45 f8          	mov    -0x8(%rbp),%rax
    4bb8:	48 89 c7             	mov    %rax,%rdi
    4bbb:	e8 aa 00 00 00       	call   0x4c6a
    4bc0:	48 89 c1             	mov    %rax,%rcx
    4bc3:	48 8b 55 f0          	mov    -0x10(%rbp),%rdx
    4bc7:	48 8b 45 f8          	mov    -0x8(%rbp),%rax
    4bcb:	48 89 ce             	mov    %rcx,%rsi
    4bce:	48 89 c7             	mov    %rax,%rdi
    4bd1:	e8 e4 00 00 00       	call   0x4cba
    4bd6:	90                   	nop
    4bd7:	c9                   	leave  
    4bd8:	c3                   	ret    
    4bd9:	90                   	nop
    4bda:	f3 0f 1e fa          	endbr64 
    4bde:	55                   	push   %rbp
    4bdf:	48 89 e5             	mov    %rsp,%rbp
    4be2:	48 83 ec 10          	sub    $0x10,%rsp
    4be6:	48 89 7d f8          	mov    %rdi,-0x8(%rbp)
    4bea:	48 8b 45 f8          	mov    -0x8(%rbp),%rax
    4bee:	48 89 c7             	mov    %rax,%rdi
    4bf1:	e8 78 03 00 00       	call   0x4f6e
    4bf6:	90                   	nop
    4bf7:	c9                   	leave  
    4bf8:	c3                   	ret    
    4bf9:	90                   	nop
    4bfa:	f3 0f 1e fa          	endbr64 
    4bfe:	55                   	push   %rbp
    4bff:	48 89 e5             	mov    %rsp,%rbp
    4c02:	48 89 7d f8          	mov    %rdi,-0x8(%rbp)
    4c06:	48 8b 45 f8          	mov    -0x8(%rbp),%rax
    4c0a:	48 c7 00 00 00 00 00 	movq   $0x0,(%rax)
    4c11:	48 8b 45 f8          	mov    -0x8(%rbp),%rax
    4c15:	48 c7 40 08 00 00 00 	movq   $0x0,0x8(%rax)
    4c1c:	00 
    4c1d:	48 8b 45 f8          	mov    -0x8(%rbp),%rax
    4c21:	48 c7 40 10 00 00 00 	movq   $0x0,0x10(%rax)
    4c28:	00 
    4c29:	90                   	nop
    4c2a:	5d                   	pop    %rbp
    4c2b:	c3                   	ret    
    4c2c:	f3 0f 1e fa          	endbr64 
    4c30:	55                   	push   %rbp
    4c31:	48 89 e5             	mov    %rsp,%rbp
    4c34:	48 83 ec 20          	sub    $0x20,%rsp
    4c38:	48 89 7d f8          	mov    %rdi,-0x8(%rbp)
    4c3c:	48 89 75 f0          	mov    %rsi,-0x10(%rbp)
    4c40:	48 89 55 e8          	mov    %rdx,-0x18(%rbp)
    4c44:	48 8b 45 e8          	mov    -0x18(%rbp),%rax
    4c48:	48 89 c7             	mov    %rax,%rdi
    4c4b:	e8 2d 03 00 00       	call   0x4f7d
    4c50:	48 89 c2             	mov    %rax,%rdx
    4c53:	48 8b 4d f0          	mov    -0x10(%rbp),%rcx
    4c57:	48 8b 45 f8          	mov    -0x8(%rbp),%rax
    4c5b:	48 89 ce             	mov    %rcx,%rsi
    4c5e:	48 89 c7             	mov    %rax,%rdi
    4c61:	e8 2a 03 00 00       	call   0x4f90
    4c66:	90                   	nop
    4c67:	c9                   	leave  
    4c68:	c3                   	ret    
    4c69:	90                   	nop
    4c6a:	f3 0f 1e fa          	endbr64 
    4c6e:	55                   	push   %rbp
    4c6f:	48 89 e5             	mov    %rsp,%rbp
    4c72:	48 83 ec 20          	sub    $0x20,%rsp
    4c76:	48 89 7d e8          	mov    %rdi,-0x18(%rbp)
    4c7a:	48 8b 45 e8          	mov    -0x18(%rbp),%rax
    4c7e:	48 8d 50 08          	lea    0x8(%rax),%rdx
    4c82:	48 8d 45 f8          	lea    -0x8(%rbp),%rax
    4c86:	48 89 d6             	mov    %rdx,%rsi
    4c89:	48 89 c7             	mov    %rax,%rdi
    4c8c:	e8 43 03 00 00       	call   0x4fd4
    4c91:	48 8b 45 f8          	mov    -0x8(%rbp),%rax
    4c95:	c9                   	leave  
    4c96:	c3                   	ret    
    4c97:	f3 0f 1e fa          	endbr64 
    4c9b:	55                   	push   %rbp
    4c9c:	48 89 e5             	mov    %rsp,%rbp
    4c9f:	48 83 ec 10          	sub    $0x10,%rsp
    4ca3:	e8 02 00 00 00       	call   0x4caa
    4ca8:	c9                   	leave  
    4ca9:	c3                   	ret    
    4caa:	f3 0f 1e fa          	endbr64 
    4cae:	55                   	push   %rbp
    4caf:	48 89 e5             	mov    %rsp,%rbp
    4cb2:	b8 01 00 00 00       	mov    $0x1,%eax
    4cb7:	5d                   	pop    %rbp
    4cb8:	c3                   	ret    
    4cb9:	90                   	nop
    4cba:	f3 0f 1e fa          	endbr64 
    4cbe:	55                   	push   %rbp
    4cbf:	48 89 e5             	mov    %rsp,%rbp
    4cc2:	53                   	push   %rbx
    4cc3:	48 83 ec 68          	sub    $0x68,%rsp
    4cc7:	48 89 7d a8          	mov    %rdi,-0x58(%rbp)
    4ccb:	48 89 75 a0          	mov    %rsi,-0x60(%rbp)
    4ccf:	48 89 55 98          	mov    %rdx,-0x68(%rbp)
    4cd3:	48 8b 45 a8          	mov    -0x58(%rbp),%rax
    4cd7:	48 8d 15 2b 0d 00 00 	lea    0xd2b(%rip),%rdx        # 0x5a09
    4cde:	be 01 00 00 00       	mov    $0x1,%esi
    4ce3:	48 89 c7             	mov    %rax,%rdi
    4ce6:	e8 0b 03 00 00       	call   0x4ff6
    4ceb:	48 89 45 c8          	mov    %rax,-0x38(%rbp)
    4cef:	48 8b 45 a8          	mov    -0x58(%rbp),%rax
    4cf3:	48 8b 00             	mov    (%rax),%rax
    4cf6:	48 89 45 d0          	mov    %rax,-0x30(%rbp)
    4cfa:	48 8b 45 a8          	mov    -0x58(%rbp),%rax
    4cfe:	48 8b 40 08          	mov    0x8(%rax),%rax
    4d02:	48 89 45 d8          	mov    %rax,-0x28(%rbp)
    4d06:	48 8b 45 a8          	mov    -0x58(%rbp),%rax
    4d0a:	48 89 c7             	mov    %rax,%rdi
    4d0d:	e8 b2 03 00 00       	call   0x50c4
    4d12:	48 89 45 b8          	mov    %rax,-0x48(%rbp)
    4d16:	48 8d 55 b8          	lea    -0x48(%rbp),%rdx
    4d1a:	48 8d 45 a0          	lea    -0x60(%rbp),%rax
    4d1e:	48 89 d6             	mov    %rdx,%rsi
    4d21:	48 89 c7             	mov    %rax,%rdi
    4d24:	e8 c4 03 00 00       	call   0x50ed
    4d29:	48 89 45 e0          	mov    %rax,-0x20(%rbp)
    4d2d:	48 8b 45 a8          	mov    -0x58(%rbp),%rax
    4d31:	48 8b 55 c8          	mov    -0x38(%rbp),%rdx
    4d35:	48 89 d6             	mov    %rdx,%rsi
    4d38:	48 89 c7             	mov    %rax,%rdi
    4d3b:	e8 ee 03 00 00       	call   0x512e
    4d40:	48 89 45 e8          	mov    %rax,-0x18(%rbp)
    4d44:	48 8b 45 e8          	mov    -0x18(%rbp),%rax
    4d48:	48 89 45 c0          	mov    %rax,-0x40(%rbp)
    4d4c:	48 8b 45 98          	mov    -0x68(%rbp),%rax
    4d50:	48 89 c7             	mov    %rax,%rdi
    4d53:	e8 25 02 00 00       	call   0x4f7d
    4d58:	48 89 c2             	mov    %rax,%rdx
    4d5b:	48 8b 4d e8          	mov    -0x18(%rbp),%rcx
    4d5f:	48 8b 45 e0          	mov    -0x20(%rbp),%rax
    4d63:	48 01 c1             	add    %rax,%rcx
    4d66:	48 8b 45 a8          	mov    -0x58(%rbp),%rax
    4d6a:	48 89 ce             	mov    %rcx,%rsi
    4d6d:	48 89 c7             	mov    %rax,%rdi
    4d70:	e8 b7 fe ff ff       	call   0x4c2c
    4d75:	48 c7 45 c0 00 00 00 	movq   $0x0,-0x40(%rbp)
    4d7c:	00 
    4d7d:	e8 15 ff ff ff       	call   0x4c97
    4d82:	84 c0                	test   %al,%al
    4d84:	74 71                	je     0x4df7
    4d86:	48 8b 45 a8          	mov    -0x58(%rbp),%rax
    4d8a:	48 89 c7             	mov    %rax,%rdi
    4d8d:	e8 38 ea ff ff       	call   0x37ca
    4d92:	48 89 c3             	mov    %rax,%rbx
    4d95:	48 8d 45 a0          	lea    -0x60(%rbp),%rax
    4d99:	48 89 c7             	mov    %rax,%rdi
    4d9c:	e8 fb 03 00 00       	call   0x519c
    4da1:	48 8b 30             	mov    (%rax),%rsi
    4da4:	48 8b 55 e8          	mov    -0x18(%rbp),%rdx
    4da8:	48 8b 45 d0          	mov    -0x30(%rbp),%rax
    4dac:	48 89 d9             	mov    %rbx,%rcx
    4daf:	48 89 c7             	mov    %rax,%rdi
    4db2:	e8 ae 03 00 00       	call   0x5165
    4db7:	48 89 45 c0          	mov    %rax,-0x40(%rbp)
    4dbb:	48 83 45 c0 01       	addq   $0x1,-0x40(%rbp)
    4dc0:	48 8b 45 a8          	mov    -0x58(%rbp),%rax
    4dc4:	48 89 c7             	mov    %rax,%rdi
    4dc7:	e8 fe e9 ff ff       	call   0x37ca
    4dcc:	48 89 c3             	mov    %rax,%rbx
    4dcf:	48 8d 45 a0          	lea    -0x60(%rbp),%rax
    4dd3:	48 89 c7             	mov    %rax,%rdi
    4dd6:	e8 c1 03 00 00       	call   0x519c
    4ddb:	48 8b 00             	mov    (%rax),%rax
    4dde:	48 8b 55 c0          	mov    -0x40(%rbp),%rdx
    4de2:	48 8b 75 d8          	mov    -0x28(%rbp),%rsi
    4de6:	48 89 d9             	mov    %rbx,%rcx
    4de9:	48 89 c7             	mov    %rax,%rdi
    4dec:	e8 74 03 00 00       	call   0x5165
    4df1:	48 89 45 c0          	mov    %rax,-0x40(%rbp)
    4df5:	eb 6f                	jmp    0x4e66
    4df7:	48 8b 45 a8          	mov    -0x58(%rbp),%rax
    4dfb:	48 89 c7             	mov    %rax,%rdi
    4dfe:	e8 c7 e9 ff ff       	call   0x37ca
    4e03:	48 89 c3             	mov    %rax,%rbx
    4e06:	48 8d 45 a0          	lea    -0x60(%rbp),%rax
    4e0a:	48 89 c7             	mov    %rax,%rdi
    4e0d:	e8 8a 03 00 00       	call   0x519c
    4e12:	48 8b 30             	mov    (%rax),%rsi
    4e15:	48 8b 55 e8          	mov    -0x18(%rbp),%rdx
    4e19:	48 8b 45 d0          	mov    -0x30(%rbp),%rax
    4e1d:	48 89 d9             	mov    %rbx,%rcx
    4e20:	48 89 c7             	mov    %rax,%rdi
    4e23:	e8 86 03 00 00       	call   0x51ae
    4e28:	48 89 45 c0          	mov    %rax,-0x40(%rbp)
    4e2c:	48 83 45 c0 01       	addq   $0x1,-0x40(%rbp)
    4e31:	48 8b 45 a8          	mov    -0x58(%rbp),%rax
    4e35:	48 89 c7             	mov    %rax,%rdi
    4e38:	e8 8d e9 ff ff       	call   0x37ca
    4e3d:	48 89 c3             	mov    %rax,%rbx
    4e40:	48 8d 45 a0          	lea    -0x60(%rbp),%rax
    4e44:	48 89 c7             	mov    %rax,%rdi
    4e47:	e8 50 03 00 00       	call   0x519c
    4e4c:	48 8b 00             	mov    (%rax),%rax
    4e4f:	48 8b 55 c0          	mov    -0x40(%rbp),%rdx
    4e53:	48 8b 75 d8          	mov    -0x28(%rbp),%rsi
    4e57:	48 89 d9             	mov    %rbx,%rcx
    4e5a:	48 89 c7             	mov    %rax,%rdi
    4e5d:	e8 4c 03 00 00       	call   0x51ae
    4e62:	48 89 45 c0          	mov    %rax,-0x40(%rbp)
    4e66:	e8 2c fe ff ff       	call   0x4c97
    4e6b:	83 f0 01             	xor    $0x1,%eax
    4e6e:	84 c0                	test   %al,%al
    4e70:	74 22                	je     0x4e94
    4e72:	48 8b 45 a8          	mov    -0x58(%rbp),%rax
    4e76:	48 89 c7             	mov    %rax,%rdi
    4e79:	e8 4c e9 ff ff       	call   0x37ca
    4e7e:	48 89 c2             	mov    %rax,%rdx
    4e81:	48 8b 4d d8          	mov    -0x28(%rbp),%rcx
    4e85:	48 8b 45 d0          	mov    -0x30(%rbp),%rax
    4e89:	48 89 ce             	mov    %rcx,%rsi
    4e8c:	48 89 c7             	mov    %rax,%rdi
    4e8f:	e8 48 e9 ff ff       	call   0x37dc
    4e94:	48 8b 45 a8          	mov    -0x58(%rbp),%rax
    4e98:	48 8b 55 a8          	mov    -0x58(%rbp),%rdx
    4e9c:	48 8b 52 10          	mov    0x10(%rdx),%rdx
    4ea0:	48 2b 55 d0          	sub    -0x30(%rbp),%rdx
    4ea4:	48 8b 4d d0          	mov    -0x30(%rbp),%rcx
    4ea8:	48 89 ce             	mov    %rcx,%rsi
    4eab:	48 89 c7             	mov    %rax,%rdi
    4eae:	e8 67 e9 ff ff       	call   0x381a
    4eb3:	48 8b 45 a8          	mov    -0x58(%rbp),%rax
    4eb7:	48 8b 55 e8          	mov    -0x18(%rbp),%rdx
    4ebb:	48 89 10             	mov    %rdx,(%rax)
    4ebe:	48 8b 45 a8          	mov    -0x58(%rbp),%rax
    4ec2:	48 8b 55 c0          	mov    -0x40(%rbp),%rdx
    4ec6:	48 89 50 08          	mov    %rdx,0x8(%rax)
    4eca:	48 8b 55 e8          	mov    -0x18(%rbp),%rdx
    4ece:	48 8b 45 c8          	mov    -0x38(%rbp),%rax
    4ed2:	48 01 c2             	add    %rax,%rdx
    4ed5:	48 8b 45 a8          	mov    -0x58(%rbp),%rax
    4ed9:	48 89 50 10          	mov    %rdx,0x10(%rax)
    4edd:	e9 84 00 00 00       	jmp    0x4f66
    4ee2:	f3 0f 1e fa          	endbr64 
    4ee6:	48 89 c7             	mov    %rax,%rdi
    4ee9:	e8 d2 d0 ff ff       	call   0x1fc0
    4eee:	48 83 7d c0 00       	cmpq   $0x0,-0x40(%rbp)
    4ef3:	75 1c                	jne    0x4f11
    4ef5:	48 8b 55 e8          	mov    -0x18(%rbp),%rdx
    4ef9:	48 8b 45 e0          	mov    -0x20(%rbp),%rax
    4efd:	48 01 c2             	add    %rax,%rdx
    4f00:	48 8b 45 a8          	mov    -0x58(%rbp),%rax
    4f04:	48 89 d6             	mov    %rdx,%rsi
    4f07:	48 89 c7             	mov    %rax,%rdi
    4f0a:	e8 f7 02 00 00       	call   0x5206
    4f0f:	eb 22                	jmp    0x4f33
    4f11:	48 8b 45 a8          	mov    -0x58(%rbp),%rax
    4f15:	48 89 c7             	mov    %rax,%rdi
    4f18:	e8 ad e8 ff ff       	call   0x37ca
    4f1d:	48 89 c2             	mov    %rax,%rdx
    4f20:	48 8b 4d c0          	mov    -0x40(%rbp),%rcx
    4f24:	48 8b 45 e8          	mov    -0x18(%rbp),%rax
    4f28:	48 89 ce             	mov    %rcx,%rsi
    4f2b:	48 89 c7             	mov    %rax,%rdi
    4f2e:	e8 a9 e8 ff ff       	call   0x37dc
    4f33:	48 8b 45 a8          	mov    -0x58(%rbp),%rax
    4f37:	48 8b 55 c8          	mov    -0x38(%rbp),%rdx
    4f3b:	48 8b 4d e8          	mov    -0x18(%rbp),%rcx
    4f3f:	48 89 ce             	mov    %rcx,%rsi
    4f42:	48 89 c7             	mov    %rax,%rdi
    4f45:	e8 d0 e8 ff ff       	call   0x381a
    4f4a:	e8 81 d0 ff ff       	call   0x1fd0
    4f4f:	f3 0f 1e fa          	endbr64 
    4f53:	48 89 c3             	mov    %rax,%rbx
    4f56:	e8 85 d0 ff ff       	call   0x1fe0
    4f5b:	48 89 d8             	mov    %rbx,%rax
    4f5e:	48 89 c7             	mov    %rax,%rdi
    4f61:	e8 8a ce ff ff       	call   0x1df0
    4f66:	48 83 c4 68          	add    $0x68,%rsp
    4f6a:	5b                   	pop    %rbx
    4f6b:	5d                   	pop    %rbp
    4f6c:	c3                   	ret    
    4f6d:	90                   	nop
    4f6e:	f3 0f 1e fa          	endbr64 
    4f72:	55                   	push   %rbp
    4f73:	48 89 e5             	mov    %rsp,%rbp
    4f76:	48 89 7d f8          	mov    %rdi,-0x8(%rbp)
    4f7a:	90                   	nop
    4f7b:	5d                   	pop    %rbp
    4f7c:	c3                   	ret    
    4f7d:	f3 0f 1e fa          	endbr64 
    4f81:	55                   	push   %rbp
    4f82:	48 89 e5             	mov    %rsp,%rbp
    4f85:	48 89 7d f8          	mov    %rdi,-0x8(%rbp)
    4f89:	48 8b 45 f8          	mov    -0x8(%rbp),%rax
    4f8d:	5d                   	pop    %rbp
    4f8e:	c3                   	ret    
    4f8f:	90                   	nop
    4f90:	f3 0f 1e fa          	endbr64 
    4f94:	55                   	push   %rbp
    4f95:	48 89 e5             	mov    %rsp,%rbp
    4f98:	53                   	push   %rbx
    4f99:	48 83 ec 28          	sub    $0x28,%rsp
    4f9d:	48 89 7d e8          	mov    %rdi,-0x18(%rbp)
    4fa1:	48 89 75 e0          	mov    %rsi,-0x20(%rbp)
    4fa5:	48 89 55 d8          	mov    %rdx,-0x28(%rbp)
    4fa9:	48 8b 45 d8          	mov    -0x28(%rbp),%rax
    4fad:	48 89 c7             	mov    %rax,%rdi
    4fb0:	e8 c8 ff ff ff       	call   0x4f7d
    4fb5:	0f b6 18             	movzbl (%rax),%ebx
    4fb8:	48 8b 45 e0          	mov    -0x20(%rbp),%rax
    4fbc:	48 89 c6             	mov    %rax,%rsi
    4fbf:	bf 01 00 00 00       	mov    $0x1,%edi
    4fc4:	e8 36 e0 ff ff       	call   0x2fff
    4fc9:	88 18                	mov    %bl,(%rax)
    4fcb:	90                   	nop
    4fcc:	48 83 c4 28          	add    $0x28,%rsp
    4fd0:	5b                   	pop    %rbx
    4fd1:	5d                   	pop    %rbp
    4fd2:	c3                   	ret    
    4fd3:	90                   	nop
    4fd4:	f3 0f 1e fa          	endbr64 
    4fd8:	55                   	push   %rbp
    4fd9:	48 89 e5             	mov    %rsp,%rbp
    4fdc:	48 89 7d f8          	mov    %rdi,-0x8(%rbp)
    4fe0:	48 89 75 f0          	mov    %rsi,-0x10(%rbp)
    4fe4:	48 8b 45 f0          	mov    -0x10(%rbp),%rax
    4fe8:	48 8b 10             	mov    (%rax),%rdx
    4feb:	48 8b 45 f8          	mov    -0x8(%rbp),%rax
    4fef:	48 89 10             	mov    %rdx,(%rax)
    4ff2:	90                   	nop
    4ff3:	5d                   	pop    %rbp
    4ff4:	c3                   	ret    
    4ff5:	90                   	nop
    4ff6:	f3 0f 1e fa          	endbr64 
    4ffa:	55                   	push   %rbp
    4ffb:	48 89 e5             	mov    %rsp,%rbp
    4ffe:	53                   	push   %rbx
    4fff:	48 83 ec 38          	sub    $0x38,%rsp
    5003:	48 89 7d d8          	mov    %rdi,-0x28(%rbp)
    5007:	48 89 75 d0          	mov    %rsi,-0x30(%rbp)
    500b:	48 89 55 c8          	mov    %rdx,-0x38(%rbp)
    500f:	48 8b 45 d8          	mov    -0x28(%rbp),%rax
    5013:	48 89 c7             	mov    %rax,%rdi
    5016:	e8 15 02 00 00       	call   0x5230
    501b:	48 89 c3             	mov    %rax,%rbx
    501e:	48 8b 45 d8          	mov    -0x28(%rbp),%rax
    5022:	48 89 c7             	mov    %rax,%rdi
    5025:	e8 ec e4 ff ff       	call   0x3516
    502a:	48 29 c3             	sub    %rax,%rbx
    502d:	48 89 da             	mov    %rbx,%rdx
    5030:	48 8b 45 d0          	mov    -0x30(%rbp),%rax
    5034:	48 39 c2             	cmp    %rax,%rdx
    5037:	0f 92 c0             	setb   %al
    503a:	84 c0                	test   %al,%al
    503c:	74 0c                	je     0x504a
    503e:	48 8b 45 c8          	mov    -0x38(%rbp),%rax
    5042:	48 89 c7             	mov    %rax,%rdi
    5045:	e8 36 cf ff ff       	call   0x1f80
    504a:	48 8b 45 d8          	mov    -0x28(%rbp),%rax
    504e:	48 89 c7             	mov    %rax,%rdi
    5051:	e8 c0 e4 ff ff       	call   0x3516
    5056:	48 89 c3             	mov    %rax,%rbx
    5059:	48 8b 45 d8          	mov    -0x28(%rbp),%rax
    505d:	48 89 c7             	mov    %rax,%rdi
    5060:	e8 b1 e4 ff ff       	call   0x3516
    5065:	48 89 45 e0          	mov    %rax,-0x20(%rbp)
    5069:	48 8d 55 d0          	lea    -0x30(%rbp),%rdx
    506d:	48 8d 45 e0          	lea    -0x20(%rbp),%rax
    5071:	48 89 d6             	mov    %rdx,%rsi
    5074:	48 89 c7             	mov    %rax,%rdi
    5077:	e8 da 01 00 00       	call   0x5256
    507c:	48 8b 00             	mov    (%rax),%rax
    507f:	48 01 d8             	add    %rbx,%rax
    5082:	48 89 45 e8          	mov    %rax,-0x18(%rbp)
    5086:	48 8b 45 d8          	mov    -0x28(%rbp),%rax
    508a:	48 89 c7             	mov    %rax,%rdi
    508d:	e8 84 e4 ff ff       	call   0x3516
    5092:	48 39 45 e8          	cmp    %rax,-0x18(%rbp)
    5096:	72 12                	jb     0x50aa
    5098:	48 8b 45 d8          	mov    -0x28(%rbp),%rax
    509c:	48 89 c7             	mov    %rax,%rdi
    509f:	e8 8c 01 00 00       	call   0x5230
    50a4:	48 39 45 e8          	cmp    %rax,-0x18(%rbp)
    50a8:	76 0e                	jbe    0x50b8
    50aa:	48 8b 45 d8          	mov    -0x28(%rbp),%rax
    50ae:	48 89 c7             	mov    %rax,%rdi
    50b1:	e8 7a 01 00 00       	call   0x5230
    50b6:	eb 04                	jmp    0x50bc
    50b8:	48 8b 45 e8          	mov    -0x18(%rbp),%rax
    50bc:	48 83 c4 38          	add    $0x38,%rsp
    50c0:	5b                   	pop    %rbx
    50c1:	5d                   	pop    %rbp
    50c2:	c3                   	ret    
    50c3:	90                   	nop
    50c4:	f3 0f 1e fa          	endbr64 
    50c8:	55                   	push   %rbp
    50c9:	48 89 e5             	mov    %rsp,%rbp
    50cc:	48 83 ec 20          	sub    $0x20,%rsp
    50d0:	48 89 7d e8          	mov    %rdi,-0x18(%rbp)
    50d4:	48 8b 55 e8          	mov    -0x18(%rbp),%rdx
    50d8:	48 8d 45 f8          	lea    -0x8(%rbp),%rax
    50dc:	48 89 d6             	mov    %rdx,%rsi
    50df:	48 89 c7             	mov    %rax,%rdi
    50e2:	e8 ed fe ff ff       	call   0x4fd4
    50e7:	48 8b 45 f8          	mov    -0x8(%rbp),%rax
    50eb:	c9                   	leave  
    50ec:	c3                   	ret    
    50ed:	f3 0f 1e fa          	endbr64 
    50f1:	55                   	push   %rbp
    50f2:	48 89 e5             	mov    %rsp,%rbp
    50f5:	53                   	push   %rbx
    50f6:	48 83 ec 18          	sub    $0x18,%rsp
    50fa:	48 89 7d e8          	mov    %rdi,-0x18(%rbp)
    50fe:	48 89 75 e0          	mov    %rsi,-0x20(%rbp)
    5102:	48 8b 45 e8          	mov    -0x18(%rbp),%rax
    5106:	48 89 c7             	mov    %rax,%rdi
    5109:	e8 8e 00 00 00       	call   0x519c
    510e:	48 8b 18             	mov    (%rax),%rbx
    5111:	48 8b 45 e0          	mov    -0x20(%rbp),%rax
    5115:	48 89 c7             	mov    %rax,%rdi
    5118:	e8 7f 00 00 00       	call   0x519c
    511d:	48 8b 00             	mov    (%rax),%rax
    5120:	48 29 c3             	sub    %rax,%rbx
    5123:	48 89 d8             	mov    %rbx,%rax
    5126:	48 83 c4 18          	add    $0x18,%rsp
    512a:	5b                   	pop    %rbx
    512b:	5d                   	pop    %rbp
    512c:	c3                   	ret    
    512d:	90                   	nop
    512e:	f3 0f 1e fa          	endbr64 
    5132:	55                   	push   %rbp
    5133:	48 89 e5             	mov    %rsp,%rbp
    5136:	48 83 ec 10          	sub    $0x10,%rsp
    513a:	48 89 7d f8          	mov    %rdi,-0x8(%rbp)
    513e:	48 89 75 f0          	mov    %rsi,-0x10(%rbp)
    5142:	48 83 7d f0 00       	cmpq   $0x0,-0x10(%rbp)
    5147:	74 15                	je     0x515e
    5149:	48 8b 45 f8          	mov    -0x8(%rbp),%rax
    514d:	48 8b 55 f0          	mov    -0x10(%rbp),%rdx
    5151:	48 89 d6             	mov    %rdx,%rsi
    5154:	48 89 c7             	mov    %rax,%rdi
    5157:	e8 29 01 00 00       	call   0x5285
    515c:	eb 05                	jmp    0x5163
    515e:	b8 00 00 00 00       	mov    $0x0,%eax
    5163:	c9                   	leave  
    5164:	c3                   	ret    
    5165:	f3 0f 1e fa          	endbr64 
    5169:	55                   	push   %rbp
    516a:	48 89 e5             	mov    %rsp,%rbp
    516d:	48 83 ec 30          	sub    $0x30,%rsp
    5171:	48 89 7d e8          	mov    %rdi,-0x18(%rbp)
    5175:	48 89 75 e0          	mov    %rsi,-0x20(%rbp)
    5179:	48 89 55 d8          	mov    %rdx,-0x28(%rbp)
    517d:	48 89 4d d0          	mov    %rcx,-0x30(%rbp)
    5181:	48 8b 4d d0          	mov    -0x30(%rbp),%rcx
    5185:	48 8b 55 d8          	mov    -0x28(%rbp),%rdx
    5189:	48 8b 75 e0          	mov    -0x20(%rbp),%rsi
    518d:	48 8b 45 e8          	mov    -0x18(%rbp),%rax
    5191:	48 89 c7             	mov    %rax,%rdi
    5194:	e8 1a 01 00 00       	call   0x52b3
    5199:	c9                   	leave  
    519a:	c3                   	ret    
    519b:	90                   	nop
    519c:	f3 0f 1e fa          	endbr64 
    51a0:	55                   	push   %rbp
    51a1:	48 89 e5             	mov    %rsp,%rbp
    51a4:	48 89 7d f8          	mov    %rdi,-0x8(%rbp)
    51a8:	48 8b 45 f8          	mov    -0x8(%rbp),%rax
    51ac:	5d                   	pop    %rbp
    51ad:	c3                   	ret    
    51ae:	f3 0f 1e fa          	endbr64 
    51b2:	55                   	push   %rbp
    51b3:	48 89 e5             	mov    %rsp,%rbp
    51b6:	53                   	push   %rbx
    51b7:	48 83 ec 28          	sub    $0x28,%rsp
    51bb:	48 89 7d e8          	mov    %rdi,-0x18(%rbp)
    51bf:	48 89 75 e0          	mov    %rsi,-0x20(%rbp)
    51c3:	48 89 55 d8          	mov    %rdx,-0x28(%rbp)
    51c7:	48 89 4d d0          	mov    %rcx,-0x30(%rbp)
    51cb:	48 8b 45 e0          	mov    -0x20(%rbp),%rax
    51cf:	48 89 c7             	mov    %rax,%rdi
    51d2:	e8 12 01 00 00       	call   0x52e9
    51d7:	48 89 c3             	mov    %rax,%rbx
    51da:	48 8b 45 e8          	mov    -0x18(%rbp),%rax
    51de:	48 89 c7             	mov    %rax,%rdi
    51e1:	e8 03 01 00 00       	call   0x52e9
    51e6:	48 89 c7             	mov    %rax,%rdi
    51e9:	48 8b 55 d0          	mov    -0x30(%rbp),%rdx
    51ed:	48 8b 45 d8          	mov    -0x28(%rbp),%rax
    51f1:	48 89 d1             	mov    %rdx,%rcx
    51f4:	48 89 c2             	mov    %rax,%rdx
    51f7:	48 89 de             	mov    %rbx,%rsi
    51fa:	e8 13 01 00 00       	call   0x5312
    51ff:	48 83 c4 28          	add    $0x28,%rsp
    5203:	5b                   	pop    %rbx
    5204:	5d                   	pop    %rbp
    5205:	c3                   	ret    
    5206:	f3 0f 1e fa          	endbr64 
    520a:	55                   	push   %rbp
    520b:	48 89 e5             	mov    %rsp,%rbp
    520e:	48 83 ec 10          	sub    $0x10,%rsp
    5212:	48 89 7d f8          	mov    %rdi,-0x8(%rbp)
    5216:	48 89 75 f0          	mov    %rsi,-0x10(%rbp)
    521a:	48 8b 55 f0          	mov    -0x10(%rbp),%rdx
    521e:	48 8b 45 f8          	mov    -0x8(%rbp),%rax
    5222:	48 89 d6             	mov    %rdx,%rsi
    5225:	48 89 c7             	mov    %rax,%rdi
    5228:	e8 1b 01 00 00       	call   0x5348
    522d:	90                   	nop
    522e:	c9                   	leave  
    522f:	c3                   	ret    
    5230:	f3 0f 1e fa          	endbr64 
    5234:	55                   	push   %rbp
    5235:	48 89 e5             	mov    %rsp,%rbp
    5238:	48 83 ec 10          	sub    $0x10,%rsp
    523c:	48 89 7d f8          	mov    %rdi,-0x8(%rbp)
    5240:	48 8b 45 f8          	mov    -0x8(%rbp),%rax
    5244:	48 89 c7             	mov    %rax,%rdi
    5247:	e8 56 01 00 00       	call   0x53a2
    524c:	48 89 c7             	mov    %rax,%rdi
    524f:	e8 07 01 00 00       	call   0x535b
    5254:	c9                   	leave  
    5255:	c3                   	ret    
    5256:	f3 0f 1e fa          	endbr64 
    525a:	55                   	push   %rbp
    525b:	48 89 e5             	mov    %rsp,%rbp
    525e:	48 89 7d f8          	mov    %rdi,-0x8(%rbp)
    5262:	48 89 75 f0          	mov    %rsi,-0x10(%rbp)
    5266:	48 8b 45 f8          	mov    -0x8(%rbp),%rax
    526a:	48 8b 10             	mov    (%rax),%rdx
    526d:	48 8b 45 f0          	mov    -0x10(%rbp),%rax
    5271:	48 8b 00             	mov    (%rax),%rax
    5274:	48 39 c2             	cmp    %rax,%rdx
    5277:	73 06                	jae    0x527f
    5279:	48 8b 45 f0          	mov    -0x10(%rbp),%rax
    527d:	eb 04                	jmp    0x5283
    527f:	48 8b 45 f8          	mov    -0x8(%rbp),%rax
    5283:	5d                   	pop    %rbp
    5284:	c3                   	ret    
    5285:	f3 0f 1e fa          	endbr64 
    5289:	55                   	push   %rbp
    528a:	48 89 e5             	mov    %rsp,%rbp
    528d:	48 83 ec 10          	sub    $0x10,%rsp
    5291:	48 89 7d f8          	mov    %rdi,-0x8(%rbp)
    5295:	48 89 75 f0          	mov    %rsi,-0x10(%rbp)
    5299:	48 8b 4d f0          	mov    -0x10(%rbp),%rcx
    529d:	48 8b 45 f8          	mov    -0x8(%rbp),%rax
    52a1:	ba 00 00 00 00       	mov    $0x0,%edx
    52a6:	48 89 ce             	mov    %rcx,%rsi
    52a9:	48 89 c7             	mov    %rax,%rdi
    52ac:	e8 03 01 00 00       	call   0x53b4
    52b1:	c9                   	leave  
    52b2:	c3                   	ret    
    52b3:	f3 0f 1e fa          	endbr64 
    52b7:	55                   	push   %rbp
    52b8:	48 89 e5             	mov    %rsp,%rbp
    52bb:	48 83 ec 20          	sub    $0x20,%rsp
    52bf:	48 89 7d f8          	mov    %rdi,-0x8(%rbp)
    52c3:	48 89 75 f0          	mov    %rsi,-0x10(%rbp)
    52c7:	48 89 55 e8          	mov    %rdx,-0x18(%rbp)
    52cb:	48 89 4d e0          	mov    %rcx,-0x20(%rbp)
    52cf:	48 8b 4d e0          	mov    -0x20(%rbp),%rcx
    52d3:	48 8b 55 e8          	mov    -0x18(%rbp),%rdx
    52d7:	48 8b 75 f0          	mov    -0x10(%rbp),%rsi
    52db:	48 8b 45 f8          	mov    -0x8(%rbp),%rax
    52df:	48 89 c7             	mov    %rax,%rdi
    52e2:	e8 0f 01 00 00       	call   0x53f6
    52e7:	c9                   	leave  
    52e8:	c3                   	ret    
    52e9:	f3 0f 1e fa          	endbr64 
    52ed:	55                   	push   %rbp
    52ee:	48 89 e5             	mov    %rsp,%rbp
    52f1:	48 83 ec 20          	sub    $0x20,%rsp
    52f5:	48 89 7d e8          	mov    %rdi,-0x18(%rbp)
    52f9:	48 8b 55 e8          	mov    -0x18(%rbp),%rdx
    52fd:	48 8d 45 f8          	lea    -0x8(%rbp),%rax
    5301:	48 89 d6             	mov    %rdx,%rsi
    5304:	48 89 c7             	mov    %rax,%rdi
    5307:	e8 52 01 00 00       	call   0x545e
    530c:	48 8b 45 f8          	mov    -0x8(%rbp),%rax
    5310:	c9                   	leave  
    5311:	c3                   	ret    
    5312:	f3 0f 1e fa          	endbr64 
    5316:	55                   	push   %rbp
    5317:	48 89 e5             	mov    %rsp,%rbp
    531a:	48 83 ec 20          	sub    $0x20,%rsp
    531e:	48 89 7d f8          	mov    %rdi,-0x8(%rbp)
    5322:	48 89 75 f0          	mov    %rsi,-0x10(%rbp)
    5326:	48 89 55 e8          	mov    %rdx,-0x18(%rbp)
    532a:	48 89 4d e0          	mov    %rcx,-0x20(%rbp)
    532e:	48 8b 55 e8          	mov    -0x18(%rbp),%rdx
    5332:	48 8b 4d f0          	mov    -0x10(%rbp),%rcx
    5336:	48 8b 45 f8          	mov    -0x8(%rbp),%rax
    533a:	48 89 ce             	mov    %rcx,%rsi
    533d:	48 89 c7             	mov    %rax,%rdi
    5340:	e8 37 01 00 00       	call   0x547c
    5345:	c9                   	leave  
    5346:	c3                   	ret    
    5347:	90                   	nop
    5348:	f3 0f 1e fa          	endbr64 
    534c:	55                   	push   %rbp
    534d:	48 89 e5             	mov    %rsp,%rbp
    5350:	48 89 7d f8          	mov    %rdi,-0x8(%rbp)
    5354:	48 89 75 f0          	mov    %rsi,-0x10(%rbp)
    5358:	90                   	nop
    5359:	5d                   	pop    %rbp
    535a:	c3                   	ret    
    535b:	f3 0f 1e fa          	endbr64 
    535f:	55                   	push   %rbp
    5360:	48 89 e5             	mov    %rsp,%rbp
    5363:	48 83 ec 20          	sub    $0x20,%rsp
    5367:	48 89 7d e8          	mov    %rdi,-0x18(%rbp)
    536b:	48 b8 ff ff ff ff ff 	movabs $0x7fffffffffffffff,%rax
    5372:	ff ff 7f 
    5375:	48 89 45 f0          	mov    %rax,-0x10(%rbp)
    5379:	48 8b 45 e8          	mov    -0x18(%rbp),%rax
    537d:	48 89 c7             	mov    %rax,%rdi
    5380:	e8 2c 01 00 00       	call   0x54b1
    5385:	48 89 45 f8          	mov    %rax,-0x8(%rbp)
    5389:	48 8d 55 f8          	lea    -0x8(%rbp),%rdx
    538d:	48 8d 45 f0          	lea    -0x10(%rbp),%rax
    5391:	48 89 d6             	mov    %rdx,%rsi
    5394:	48 89 c7             	mov    %rax,%rdi
    5397:	e8 21 eb ff ff       	call   0x3ebd
    539c:	48 8b 00             	mov    (%rax),%rax
    539f:	c9                   	leave  
    53a0:	c3                   	ret    
    53a1:	90                   	nop
    53a2:	f3 0f 1e fa          	endbr64 
    53a6:	55                   	push   %rbp
    53a7:	48 89 e5             	mov    %rsp,%rbp
    53aa:	48 89 7d f8          	mov    %rdi,-0x8(%rbp)
    53ae:	48 8b 45 f8          	mov    -0x8(%rbp),%rax
    53b2:	5d                   	pop    %rbp
    53b3:	c3                   	ret    
    53b4:	f3 0f 1e fa          	endbr64 
    53b8:	55                   	push   %rbp
    53b9:	48 89 e5             	mov    %rsp,%rbp
    53bc:	48 83 ec 20          	sub    $0x20,%rsp
    53c0:	48 89 7d f8          	mov    %rdi,-0x8(%rbp)
    53c4:	48 89 75 f0          	mov    %rsi,-0x10(%rbp)
    53c8:	48 89 55 e8          	mov    %rdx,-0x18(%rbp)
    53cc:	48 8b 45 f8          	mov    -0x8(%rbp),%rax
    53d0:	48 89 c7             	mov    %rax,%rdi
    53d3:	e8 f8 00 00 00       	call   0x54d0
    53d8:	48 39 45 f0          	cmp    %rax,-0x10(%rbp)
    53dc:	0f 97 c0             	seta   %al
    53df:	84 c0                	test   %al,%al
    53e1:	74 05                	je     0x53e8
    53e3:	e8 b8 cb ff ff       	call   0x1fa0
    53e8:	48 8b 45 f0          	mov    -0x10(%rbp),%rax
    53ec:	48 89 c7             	mov    %rax,%rdi
    53ef:	e8 bc cb ff ff       	call   0x1fb0
    53f4:	c9                   	leave  
    53f5:	c3                   	ret    
    53f6:	f3 0f 1e fa          	endbr64 
    53fa:	55                   	push   %rbp
    53fb:	48 89 e5             	mov    %rsp,%rbp
    53fe:	41 54                	push   %r12
    5400:	53                   	push   %rbx
    5401:	48 83 ec 20          	sub    $0x20,%rsp
    5405:	48 89 7d e8          	mov    %rdi,-0x18(%rbp)
    5409:	48 89 75 e0          	mov    %rsi,-0x20(%rbp)
    540d:	48 89 55 d8          	mov    %rdx,-0x28(%rbp)
    5411:	48 89 4d d0          	mov    %rcx,-0x30(%rbp)
    5415:	48 8b 45 d8          	mov    -0x28(%rbp),%rax
    5419:	48 89 c7             	mov    %rax,%rdi
    541c:	e8 c7 00 00 00       	call   0x54e8
    5421:	49 89 c4             	mov    %rax,%r12
    5424:	48 8b 45 e0          	mov    -0x20(%rbp),%rax
    5428:	48 89 c7             	mov    %rax,%rdi
    542b:	e8 b8 00 00 00       	call   0x54e8
    5430:	48 89 c3             	mov    %rax,%rbx
    5433:	48 8b 45 e8          	mov    -0x18(%rbp),%rax
    5437:	48 89 c7             	mov    %rax,%rdi
    543a:	e8 a9 00 00 00       	call   0x54e8
    543f:	48 89 c7             	mov    %rax,%rdi
    5442:	48 8b 45 d0          	mov    -0x30(%rbp),%rax
    5446:	48 89 c1             	mov    %rax,%rcx
    5449:	4c 89 e2             	mov    %r12,%rdx
    544c:	48 89 de             	mov    %rbx,%rsi
    544f:	e8 a6 00 00 00       	call   0x54fa
    5454:	48 83 c4 20          	add    $0x20,%rsp
    5458:	5b                   	pop    %rbx
    5459:	41 5c                	pop    %r12
    545b:	5d                   	pop    %rbp
    545c:	c3                   	ret    
    545d:	90                   	nop
    545e:	f3 0f 1e fa          	endbr64 
    5462:	55                   	push   %rbp
    5463:	48 89 e5             	mov    %rsp,%rbp
    5466:	48 89 7d f8          	mov    %rdi,-0x8(%rbp)
    546a:	48 89 75 f0          	mov    %rsi,-0x10(%rbp)
    546e:	48 8b 45 f8          	mov    -0x8(%rbp),%rax
    5472:	48 8b 55 f0          	mov    -0x10(%rbp),%rdx
    5476:	48 89 10             	mov    %rdx,(%rax)
    5479:	90                   	nop
    547a:	5d                   	pop    %rbp
    547b:	c3                   	ret    
    547c:	f3 0f 1e fa          	endbr64 
    5480:	55                   	push   %rbp
    5481:	48 89 e5             	mov    %rsp,%rbp
    5484:	48 83 ec 30          	sub    $0x30,%rsp
    5488:	48 89 7d e8          	mov    %rdi,-0x18(%rbp)
    548c:	48 89 75 e0          	mov    %rsi,-0x20(%rbp)
    5490:	48 89 55 d8          	mov    %rdx,-0x28(%rbp)
    5494:	c6 45 ff 01          	movb   $0x1,-0x1(%rbp)
    5498:	48 8b 55 d8          	mov    -0x28(%rbp),%rdx
    549c:	48 8b 4d e0          	mov    -0x20(%rbp),%rcx
    54a0:	48 8b 45 e8          	mov    -0x18(%rbp),%rax
    54a4:	48 89 ce             	mov    %rcx,%rsi
    54a7:	48 89 c7             	mov    %rax,%rdi
    54aa:	e8 9e 00 00 00       	call   0x554d
    54af:	c9                   	leave  
    54b0:	c3                   	ret    
    54b1:	f3 0f 1e fa          	endbr64 
    54b5:	55                   	push   %rbp
    54b6:	48 89 e5             	mov    %rsp,%rbp
    54b9:	48 83 ec 10          	sub    $0x10,%rsp
    54bd:	48 89 7d f8          	mov    %rdi,-0x8(%rbp)
    54c1:	48 8b 45 f8          	mov    -0x8(%rbp),%rax
    54c5:	48 89 c7             	mov    %rax,%rdi
    54c8:	e8 03 00 00 00       	call   0x54d0
    54cd:	c9                   	leave  
    54ce:	c3                   	ret    
    54cf:	90                   	nop
    54d0:	f3 0f 1e fa          	endbr64 
    54d4:	55                   	push   %rbp
    54d5:	48 89 e5             	mov    %rsp,%rbp
    54d8:	48 89 7d f8          	mov    %rdi,-0x8(%rbp)
    54dc:	48 b8 ff ff ff ff ff 	movabs $0x7fffffffffffffff,%rax
    54e3:	ff ff 7f 
    54e6:	5d                   	pop    %rbp
    54e7:	c3                   	ret    
    54e8:	f3 0f 1e fa          	endbr64 
    54ec:	55                   	push   %rbp
    54ed:	48 89 e5             	mov    %rsp,%rbp
    54f0:	48 89 7d f8          	mov    %rdi,-0x8(%rbp)
    54f4:	48 8b 45 f8          	mov    -0x8(%rbp),%rax
    54f8:	5d                   	pop    %rbp
    54f9:	c3                   	ret    
    54fa:	f3 0f 1e fa          	endbr64 
    54fe:	55                   	push   %rbp
    54ff:	48 89 e5             	mov    %rsp,%rbp
    5502:	48 83 ec 30          	sub    $0x30,%rsp
    5506:	48 89 7d e8          	mov    %rdi,-0x18(%rbp)
    550a:	48 89 75 e0          	mov    %rsi,-0x20(%rbp)
    550e:	48 89 55 d8          	mov    %rdx,-0x28(%rbp)
    5512:	48 89 4d d0          	mov    %rcx,-0x30(%rbp)
    5516:	48 8b 45 e0          	mov    -0x20(%rbp),%rax
    551a:	48 2b 45 e8          	sub    -0x18(%rbp),%rax
    551e:	48 89 45 f8          	mov    %rax,-0x8(%rbp)
    5522:	48 83 7d f8 00       	cmpq   $0x0,-0x8(%rbp)
    5527:	7e 17                	jle    0x5540
    5529:	48 8b 55 f8          	mov    -0x8(%rbp),%rdx
    552d:	48 8b 4d e8          	mov    -0x18(%rbp),%rcx
    5531:	48 8b 45 d8          	mov    -0x28(%rbp),%rax
    5535:	48 89 ce             	mov    %rcx,%rsi
    5538:	48 89 c7             	mov    %rax,%rdi
    553b:	e8 40 cb ff ff       	call   0x2080
    5540:	48 8b 55 f8          	mov    -0x8(%rbp),%rdx
    5544:	48 8b 45 d8          	mov    -0x28(%rbp),%rax
    5548:	48 01 d0             	add    %rdx,%rax
    554b:	c9                   	leave  
    554c:	c3                   	ret    
    554d:	f3 0f 1e fa          	endbr64 
    5551:	55                   	push   %rbp
    5552:	48 89 e5             	mov    %rsp,%rbp
    5555:	48 83 ec 20          	sub    $0x20,%rsp
    5559:	48 89 7d f8          	mov    %rdi,-0x8(%rbp)
    555d:	48 89 75 f0          	mov    %rsi,-0x10(%rbp)
    5561:	48 89 55 e8          	mov    %rdx,-0x18(%rbp)
    5565:	48 8b 55 e8          	mov    -0x18(%rbp),%rdx
    5569:	48 8b 4d f0          	mov    -0x10(%rbp),%rcx
    556d:	48 8b 45 f8          	mov    -0x8(%rbp),%rax
    5571:	48 89 ce             	mov    %rcx,%rsi
    5574:	48 89 c7             	mov    %rax,%rdi
    5577:	e8 02 00 00 00       	call   0x557e
    557c:	c9                   	leave  
    557d:	c3                   	ret    
    557e:	f3 0f 1e fa          	endbr64 
    5582:	55                   	push   %rbp
    5583:	48 89 e5             	mov    %rsp,%rbp
    5586:	53                   	push   %rbx
    5587:	48 83 ec 28          	sub    $0x28,%rsp
    558b:	48 89 7d e8          	mov    %rdi,-0x18(%rbp)
    558f:	48 89 75 e0          	mov    %rsi,-0x20(%rbp)
    5593:	48 89 55 d8          	mov    %rdx,-0x28(%rbp)
    5597:	48 8b 45 e0          	mov    -0x20(%rbp),%rax
    559b:	48 89 c7             	mov    %rax,%rdi
    559e:	e8 2b 00 00 00       	call   0x55ce
    55a3:	48 89 c3             	mov    %rax,%rbx
    55a6:	48 8b 45 e8          	mov    -0x18(%rbp),%rax
    55aa:	48 89 c7             	mov    %rax,%rdi
    55ad:	e8 1c 00 00 00       	call   0x55ce
    55b2:	48 89 c1             	mov    %rax,%rcx
    55b5:	48 8b 45 d8          	mov    -0x28(%rbp),%rax
    55b9:	48 89 c2             	mov    %rax,%rdx
    55bc:	48 89 de             	mov    %rbx,%rsi
    55bf:	48 89 cf             	mov    %rcx,%rdi
    55c2:	e8 2d 00 00 00       	call   0x55f4
    55c7:	48 83 c4 28          	add    $0x28,%rsp
    55cb:	5b                   	pop    %rbx
    55cc:	5d                   	pop    %rbp
    55cd:	c3                   	ret    
    55ce:	f3 0f 1e fa          	endbr64 
    55d2:	55                   	push   %rbp
    55d3:	48 89 e5             	mov    %rsp,%rbp
    55d6:	48 83 ec 10          	sub    $0x10,%rsp
    55da:	48 89 7d f8          	mov    %rdi,-0x8(%rbp)
    55de:	48 8d 45 f8          	lea    -0x8(%rbp),%rax
    55e2:	48 89 c7             	mov    %rax,%rdi
    55e5:	e8 78 00 00 00       	call   0x5662
    55ea:	48 89 c7             	mov    %rax,%rdi
    55ed:	e8 85 00 00 00       	call   0x5677
    55f2:	c9                   	leave  
    55f3:	c3                   	ret    
    55f4:	f3 0f 1e fa          	endbr64 
    55f8:	55                   	push   %rbp
    55f9:	48 89 e5             	mov    %rsp,%rbp
    55fc:	41 54                	push   %r12
    55fe:	53                   	push   %rbx
    55ff:	48 83 ec 20          	sub    $0x20,%rsp
    5603:	48 89 7d e8          	mov    %rdi,-0x18(%rbp)
    5607:	48 89 75 e0          	mov    %rsi,-0x20(%rbp)
    560b:	48 89 55 d8          	mov    %rdx,-0x28(%rbp)
    560f:	48 8b 45 d8          	mov    -0x28(%rbp),%rax
    5613:	48 89 c7             	mov    %rax,%rdi
    5616:	e8 cd fe ff ff       	call   0x54e8
    561b:	49 89 c4             	mov    %rax,%r12
    561e:	48 8b 45 e0          	mov    -0x20(%rbp),%rax
    5622:	48 89 c7             	mov    %rax,%rdi
    5625:	e8 be fe ff ff       	call   0x54e8
    562a:	48 89 c3             	mov    %rax,%rbx
    562d:	48 8b 45 e8          	mov    -0x18(%rbp),%rax
    5631:	48 89 c7             	mov    %rax,%rdi
    5634:	e8 af fe ff ff       	call   0x54e8
    5639:	4c 89 e2             	mov    %r12,%rdx
    563c:	48 89 de             	mov    %rbx,%rsi
    563f:	48 89 c7             	mov    %rax,%rdi
    5642:	e8 42 00 00 00       	call   0x5689
    5647:	48 89 c2             	mov    %rax,%rdx
    564a:	48 8d 45 d8          	lea    -0x28(%rbp),%rax
    564e:	48 89 d6             	mov    %rdx,%rsi
    5651:	48 89 c7             	mov    %rax,%rdi
    5654:	e8 65 00 00 00       	call   0x56be
    5659:	48 83 c4 20          	add    $0x20,%rsp
    565d:	5b                   	pop    %rbx
    565e:	41 5c                	pop    %r12
    5660:	5d                   	pop    %rbp
    5661:	c3                   	ret    
    5662:	f3 0f 1e fa          	endbr64 
    5666:	55                   	push   %rbp
    5667:	48 89 e5             	mov    %rsp,%rbp
    566a:	48 89 7d f8          	mov    %rdi,-0x8(%rbp)
    566e:	48 8b 45 f8          	mov    -0x8(%rbp),%rax
    5672:	48 8b 00             	mov    (%rax),%rax
    5675:	5d                   	pop    %rbp
    5676:	c3                   	ret    
    5677:	f3 0f 1e fa          	endbr64 
    567b:	55                   	push   %rbp
    567c:	48 89 e5             	mov    %rsp,%rbp
    567f:	48 89 7d f8          	mov    %rdi,-0x8(%rbp)
    5683:	48 8b 45 f8          	mov    -0x8(%rbp),%rax
    5687:	5d                   	pop    %rbp
    5688:	c3                   	ret    
    5689:	f3 0f 1e fa          	endbr64 
    568d:	55                   	push   %rbp
    568e:	48 89 e5             	mov    %rsp,%rbp
    5691:	48 83 ec 30          	sub    $0x30,%rsp
    5695:	48 89 7d e8          	mov    %rdi,-0x18(%rbp)
    5699:	48 89 75 e0          	mov    %rsi,-0x20(%rbp)
    569d:	48 89 55 d8          	mov    %rdx,-0x28(%rbp)
    56a1:	c6 45 ff 01          	movb   $0x1,-0x1(%rbp)
    56a5:	48 8b 55 d8          	mov    -0x28(%rbp),%rdx
    56a9:	48 8b 4d e0          	mov    -0x20(%rbp),%rcx
    56ad:	48 8b 45 e8          	mov    -0x18(%rbp),%rax
    56b1:	48 89 ce             	mov    %rcx,%rsi
    56b4:	48 89 c7             	mov    %rax,%rdi
    56b7:	e8 18 00 00 00       	call   0x56d4
    56bc:	c9                   	leave  
    56bd:	c3                   	ret    
    56be:	f3 0f 1e fa          	endbr64 
    56c2:	55                   	push   %rbp
    56c3:	48 89 e5             	mov    %rsp,%rbp
    56c6:	48 89 7d f8          	mov    %rdi,-0x8(%rbp)
    56ca:	48 89 75 f0          	mov    %rsi,-0x10(%rbp)
    56ce:	48 8b 45 f0          	mov    -0x10(%rbp),%rax
    56d2:	5d                   	pop    %rbp
    56d3:	c3                   	ret    
    56d4:	f3 0f 1e fa          	endbr64 
    56d8:	55                   	push   %rbp
    56d9:	48 89 e5             	mov    %rsp,%rbp
    56dc:	48 83 ec 30          	sub    $0x30,%rsp
    56e0:	48 89 7d e8          	mov    %rdi,-0x18(%rbp)
    56e4:	48 89 75 e0          	mov    %rsi,-0x20(%rbp)
    56e8:	48 89 55 d8          	mov    %rdx,-0x28(%rbp)
    56ec:	48 8b 45 e0          	mov    -0x20(%rbp),%rax
    56f0:	48 2b 45 e8          	sub    -0x18(%rbp),%rax
    56f4:	48 89 45 f8          	mov    %rax,-0x8(%rbp)
    56f8:	48 83 7d f8 00       	cmpq   $0x0,-0x8(%rbp)
    56fd:	74 17                	je     0x5716
    56ff:	48 8b 55 f8          	mov    -0x8(%rbp),%rdx
    5703:	48 8b 4d e8          	mov    -0x18(%rbp),%rcx
    5707:	48 8b 45 d8          	mov    -0x28(%rbp),%rax
    570b:	48 89 ce             	mov    %rcx,%rsi
    570e:	48 89 c7             	mov    %rax,%rdi
    5711:	e8 6a c9 ff ff       	call   0x2080
    5716:	48 8b 55 f8          	mov    -0x8(%rbp),%rdx
    571a:	48 8b 45 d8          	mov    -0x28(%rbp),%rax
    571e:	48 01 d0             	add    %rdx,%rax
    5721:	c9                   	leave  
    5722:	c3                   	ret    
    5723:	66 66 66 66 2e 0f 1f 	data16 data16 data16 cs nopw 0x0(%rax,%rax,1)
    572a:	84 00 00 00 00 00 
    5730:	f3 0f 1e fa          	endbr64 
    5734:	41 57                	push   %r15
    5736:	4c 8d 3d 6b 34 00 00 	lea    0x346b(%rip),%r15        # 0x8ba8
    573d:	41 56                	push   %r14
    573f:	49 89 d6             	mov    %rdx,%r14
    5742:	41 55                	push   %r13
    5744:	49 89 f5             	mov    %rsi,%r13
    5747:	41 54                	push   %r12
    5749:	41 89 fc             	mov    %edi,%r12d
    574c:	55                   	push   %rbp
    574d:	48 8d 2d 74 34 00 00 	lea    0x3474(%rip),%rbp        # 0x8bc8
    5754:	53                   	push   %rbx
    5755:	4c 29 fd             	sub    %r15,%rbp
    5758:	48 83 ec 08          	sub    $0x8,%rsp
    575c:	e8 9f c2 ff ff       	call   0x1a00
    5761:	48 c1 fd 03          	sar    $0x3,%rbp
    5765:	74 1f                	je     0x5786
    5767:	31 db                	xor    %ebx,%ebx
    5769:	0f 1f 80 00 00 00 00 	nopl   0x0(%rax)
    5770:	4c 89 f2             	mov    %r14,%rdx
    5773:	4c 89 ee             	mov    %r13,%rsi
    5776:	44 89 e7             	mov    %r12d,%edi
    5779:	41 ff 14 df          	call   *(%r15,%rbx,8)
    577d:	48 83 c3 01          	add    $0x1,%rbx
    5781:	48 39 dd             	cmp    %rbx,%rbp
    5784:	75 ea                	jne    0x5770
    5786:	48 83 c4 08          	add    $0x8,%rsp
    578a:	5b                   	pop    %rbx
    578b:	5d                   	pop    %rbp
    578c:	41 5c                	pop    %r12
    578e:	41 5d                	pop    %r13
    5790:	41 5e                	pop    %r14
    5792:	41 5f                	pop    %r15
    5794:	c3                   	ret    
    5795:	66 66 2e 0f 1f 84 00 	data16 cs nopw 0x0(%rax,%rax,1)
    579c:	00 00 00 00 
    57a0:	f3 0f 1e fa          	endbr64 
    57a4:	c3                   	ret    

Disassembly of section .fini:

00000000000057a8 <.fini>:
    57a8:	f3 0f 1e fa          	endbr64 
    57ac:	48 83 ec 08          	sub    $0x8,%rsp
    57b0:	48 83 c4 08          	add    $0x8,%rsp
    57b4:	c3                   	ret    
